

Microchip Technology PIC LITE Macro Assembler V1.42 build -159332390 
                                                                                               Mon Sep 25 10:58:58 2017

Microchip Technology Omniscient Code Generator v1.42 (Free mode) build 201704130522
     1                           	processor	16F18857
     2                           	opt	pw 120
     3                           	opt	lm
     4                           	psect	cinit,global,class=CODE,merge=1,delta=2
     5                           	psect	cstackCOMMON,global,class=COMMON,space=1,delta=1
     6                           	psect	maintext,global,class=CODE,merge=1,split=1,delta=2
     7                           	psect	text1,local,class=CODE,merge=1,delta=2
     8                           	psect	text2,local,class=CODE,merge=1,delta=2
     9                           	psect	text3,local,class=CODE,merge=1,delta=2
    10                           	psect	text4,local,class=CODE,merge=1,delta=2
    11                           	psect	text5,local,class=CODE,merge=1,delta=2
    12                           	psect	text6,local,class=CODE,merge=1,delta=2
    13                           	psect	text7,local,class=CODE,merge=1,delta=2
    14                           	psect	text8,local,class=CODE,merge=1,delta=2
    15                           	dabs	1,0x7E,2
    16  0000                     
    17                           ; Version 1.42
    18                           ; Generated 13/04/2017 GMT
    19                           ; 
    20                           ; Copyright © 2017, Microchip Technology Inc. and its subsidiaries ("Microchip")
    21                           ; All rights reserved.
    22                           ; 
    23                           ; This software is developed by Microchip Technology Inc. and its subsidiaries ("Microch
      +                          ip").
    24                           ; 
    25                           ; Redistribution and use in source and binary forms, with or without modification, are
    26                           ; permitted provided that the following conditions are met:
    27                           ; 
    28                           ;     1. Redistributions of source code must retain the above copyright notice, this lis
      +                          t of
    29                           ;        conditions and the following disclaimer.
    30                           ; 
    31                           ;     2. Redistributions in binary form must reproduce the above copyright notice, this 
      +                          list
    32                           ;        of conditions and the following disclaimer in the documentation and/or other
    33                           ;        materials provided with the distribution.
    34                           ; 
    35                           ;     3. Microchip's name may not be used to endorse or promote products derived from th
      +                          is
    36                           ;        software without specific prior written permission.
    37                           ; 
    38                           ; THIS SOFTWARE IS PROVIDED BY MICROCHIP "AS IS" AND ANY EXPRESS OR IMPLIED WARRANTIES,
    39                           ; INCLUDING, BUT NOT LIMITED TO, THE IMPLIED WARRANTIES OF MERCHANTABILITY AND FITNESS F
      +                          OR
    40                           ; PURPOSE ARE DISCLAIMED.  IN NO EVENT SHALL MICROCHIP BE LIABLE FOR ANY DIRECT, INDIREC
      +                          T,
    41                           ; INCIDENTAL, SPECIAL, EXEMPLARY, OR CONSEQUENTIAL DAMAGES (INCLUDING BUT NOT LIMITED TO
    42                           ; PROCUREMENT OF SUBSTITUTE GOODS OR SERVICES; LOSS OF USE, DATA OR PROFITS; OR BUSINESS
    43                           ; INTERRUPTION) HOWSOEVER CAUSED AND ON ANY THEORY OF LIABILITY, WHETHER IN CONTRACT, ST
      +                          RICT
    44                           ; LIABILITY, OR TORT (INCLUDING NEGLIGENCE OR OTHERWISE) ARISING IN ANY WAY OUT OF THE U
      +                          SE OF
    45                           ; THIS SOFTWARE, EVEN IF ADVISED OF THE POSSIBILITY OF SUCH DAMAGE.
    46                           ; 
    47                           ; 
    48                           ; Code-generator required, PIC16F18857 Definitions
    49                           ; 
    50                           ; SFR Addresses
    51  0000                     	;# 
    52  0001                     	;# 
    53  0002                     	;# 
    54  0003                     	;# 
    55  0004                     	;# 
    56  0005                     	;# 
    57  0006                     	;# 
    58  0007                     	;# 
    59  0008                     	;# 
    60  0009                     	;# 
    61  000A                     	;# 
    62  000B                     	;# 
    63  000C                     	;# 
    64  000D                     	;# 
    65  000E                     	;# 
    66  0010                     	;# 
    67  0011                     	;# 
    68  0012                     	;# 
    69  0013                     	;# 
    70  0016                     	;# 
    71  0017                     	;# 
    72  0018                     	;# 
    73  001C                     	;# 
    74  001C                     	;# 
    75  001D                     	;# 
    76  001D                     	;# 
    77  001E                     	;# 
    78  001F                     	;# 
    79  008C                     	;# 
    80  008C                     	;# 
    81  008D                     	;# 
    82  008E                     	;# 
    83  008E                     	;# 
    84  008F                     	;# 
    85  0090                     	;# 
    86  0090                     	;# 
    87  0091                     	;# 
    88  0093                     	;# 
    89  0094                     	;# 
    90  0095                     	;# 
    91  0096                     	;# 
    92  0097                     	;# 
    93  0098                     	;# 
    94  0099                     	;# 
    95  009A                     	;# 
    96  009B                     	;# 
    97  009C                     	;# 
    98  009D                     	;# 
    99  009E                     	;# 
   100  010C                     	;# 
   101  010D                     	;# 
   102  010E                     	;# 
   103  010E                     	;# 
   104  010F                     	;# 
   105  0110                     	;# 
   106  0110                     	;# 
   107  0111                     	;# 
   108  0112                     	;# 
   109  0112                     	;# 
   110  0113                     	;# 
   111  0114                     	;# 
   112  0114                     	;# 
   113  0115                     	;# 
   114  0116                     	;# 
   115  0116                     	;# 
   116  0117                     	;# 
   117  0119                     	;# 
   118  0119                     	;# 
   119  0119                     	;# 
   120  011A                     	;# 
   121  011A                     	;# 
   122  011A                     	;# 
   123  011B                     	;# 
   124  011B                     	;# 
   125  011B                     	;# 
   126  011B                     	;# 
   127  011B                     	;# 
   128  011C                     	;# 
   129  011C                     	;# 
   130  011C                     	;# 
   131  011D                     	;# 
   132  011D                     	;# 
   133  011D                     	;# 
   134  011E                     	;# 
   135  011E                     	;# 
   136  011E                     	;# 
   137  011F                     	;# 
   138  011F                     	;# 
   139  011F                     	;# 
   140  011F                     	;# 
   141  011F                     	;# 
   142  018C                     	;# 
   143  018D                     	;# 
   144  018E                     	;# 
   145  018F                     	;# 
   146  0190                     	;# 
   147  0191                     	;# 
   148  0192                     	;# 
   149  0196                     	;# 
   150  0197                     	;# 
   151  0198                     	;# 
   152  0199                     	;# 
   153  019A                     	;# 
   154  019B                     	;# 
   155  019C                     	;# 
   156  020C                     	;# 
   157  020C                     	;# 
   158  020D                     	;# 
   159  020E                     	;# 
   160  020F                     	;# 
   161  020F                     	;# 
   162  0210                     	;# 
   163  0210                     	;# 
   164  0211                     	;# 
   165  0211                     	;# 
   166  0212                     	;# 
   167  0212                     	;# 
   168  0213                     	;# 
   169  0214                     	;# 
   170  0215                     	;# 
   171  0215                     	;# 
   172  0216                     	;# 
   173  0216                     	;# 
   174  0217                     	;# 
   175  0217                     	;# 
   176  0218                     	;# 
   177  0218                     	;# 
   178  0219                     	;# 
   179  021A                     	;# 
   180  021B                     	;# 
   181  021B                     	;# 
   182  021C                     	;# 
   183  021C                     	;# 
   184  021D                     	;# 
   185  021D                     	;# 
   186  021E                     	;# 
   187  021F                     	;# 
   188  028C                     	;# 
   189  028C                     	;# 
   190  028D                     	;# 
   191  028D                     	;# 
   192  028E                     	;# 
   193  028F                     	;# 
   194  0290                     	;# 
   195  0290                     	;# 
   196  0291                     	;# 
   197  0292                     	;# 
   198  0292                     	;# 
   199  0293                     	;# 
   200  0293                     	;# 
   201  0294                     	;# 
   202  0295                     	;# 
   203  0296                     	;# 
   204  0296                     	;# 
   205  0297                     	;# 
   206  0298                     	;# 
   207  0298                     	;# 
   208  0299                     	;# 
   209  0299                     	;# 
   210  029A                     	;# 
   211  029B                     	;# 
   212  029C                     	;# 
   213  029C                     	;# 
   214  029D                     	;# 
   215  030C                     	;# 
   216  030C                     	;# 
   217  030D                     	;# 
   218  030E                     	;# 
   219  030F                     	;# 
   220  0310                     	;# 
   221  0310                     	;# 
   222  0311                     	;# 
   223  0312                     	;# 
   224  0313                     	;# 
   225  0314                     	;# 
   226  0314                     	;# 
   227  0315                     	;# 
   228  0316                     	;# 
   229  0317                     	;# 
   230  0318                     	;# 
   231  0318                     	;# 
   232  0319                     	;# 
   233  031A                     	;# 
   234  031B                     	;# 
   235  031C                     	;# 
   236  031C                     	;# 
   237  031D                     	;# 
   238  031E                     	;# 
   239  031F                     	;# 
   240  038C                     	;# 
   241  038D                     	;# 
   242  038E                     	;# 
   243  0390                     	;# 
   244  0391                     	;# 
   245  0392                     	;# 
   246  040C                     	;# 
   247  040D                     	;# 
   248  040E                     	;# 
   249  040F                     	;# 
   250  0410                     	;# 
   251  0411                     	;# 
   252  0416                     	;# 
   253  0416                     	;# 
   254  0417                     	;# 
   255  0418                     	;# 
   256  0418                     	;# 
   257  0419                     	;# 
   258  041A                     	;# 
   259  041A                     	;# 
   260  041B                     	;# 
   261  041C                     	;# 
   262  041C                     	;# 
   263  041D                     	;# 
   264  041E                     	;# 
   265  041F                     	;# 
   266  048C                     	;# 
   267  048C                     	;# 
   268  048D                     	;# 
   269  048E                     	;# 
   270  048F                     	;# 
   271  048F                     	;# 
   272  0490                     	;# 
   273  0491                     	;# 
   274  0492                     	;# 
   275  0492                     	;# 
   276  0493                     	;# 
   277  0494                     	;# 
   278  0495                     	;# 
   279  0495                     	;# 
   280  0496                     	;# 
   281  0497                     	;# 
   282  0498                     	;# 
   283  0499                     	;# 
   284  049A                     	;# 
   285  049B                     	;# 
   286  049C                     	;# 
   287  049D                     	;# 
   288  050C                     	;# 
   289  050C                     	;# 
   290  050D                     	;# 
   291  050E                     	;# 
   292  050F                     	;# 
   293  050F                     	;# 
   294  0510                     	;# 
   295  0511                     	;# 
   296  0512                     	;# 
   297  0512                     	;# 
   298  0513                     	;# 
   299  0514                     	;# 
   300  0515                     	;# 
   301  0515                     	;# 
   302  0516                     	;# 
   303  0517                     	;# 
   304  0518                     	;# 
   305  0519                     	;# 
   306  051A                     	;# 
   307  051B                     	;# 
   308  051C                     	;# 
   309  051D                     	;# 
   310  058C                     	;# 
   311  058C                     	;# 
   312  058D                     	;# 
   313  058E                     	;# 
   314  058F                     	;# 
   315  058F                     	;# 
   316  0590                     	;# 
   317  0591                     	;# 
   318  0592                     	;# 
   319  0593                     	;# 
   320  060C                     	;# 
   321  060D                     	;# 
   322  060E                     	;# 
   323  060F                     	;# 
   324  0610                     	;# 
   325  0611                     	;# 
   326  0612                     	;# 
   327  0613                     	;# 
   328  0614                     	;# 
   329  0616                     	;# 
   330  0617                     	;# 
   331  0618                     	;# 
   332  0619                     	;# 
   333  061A                     	;# 
   334  061B                     	;# 
   335  061C                     	;# 
   336  061D                     	;# 
   337  061E                     	;# 
   338  068C                     	;# 
   339  068D                     	;# 
   340  068E                     	;# 
   341  068F                     	;# 
   342  0690                     	;# 
   343  0691                     	;# 
   344  0692                     	;# 
   345  0693                     	;# 
   346  0694                     	;# 
   347  070C                     	;# 
   348  070D                     	;# 
   349  070E                     	;# 
   350  070F                     	;# 
   351  0710                     	;# 
   352  0711                     	;# 
   353  0712                     	;# 
   354  0713                     	;# 
   355  0714                     	;# 
   356  0716                     	;# 
   357  0717                     	;# 
   358  0718                     	;# 
   359  0719                     	;# 
   360  071A                     	;# 
   361  071B                     	;# 
   362  071C                     	;# 
   363  071D                     	;# 
   364  071E                     	;# 
   365  0796                     	;# 
   366  0797                     	;# 
   367  0798                     	;# 
   368  0799                     	;# 
   369  079A                     	;# 
   370  079B                     	;# 
   371  080C                     	;# 
   372  080D                     	;# 
   373  080E                     	;# 
   374  080F                     	;# 
   375  0810                     	;# 
   376  0811                     	;# 
   377  0812                     	;# 
   378  0813                     	;# 
   379  0814                     	;# 
   380  081A                     	;# 
   381  081B                     	;# 
   382  081C                     	;# 
   383  081D                     	;# 
   384  081E                     	;# 
   385  081F                     	;# 
   386  088C                     	;# 
   387  088D                     	;# 
   388  088E                     	;# 
   389  088F                     	;# 
   390  0890                     	;# 
   391  0891                     	;# 
   392  0892                     	;# 
   393  0893                     	;# 
   394  0895                     	;# 
   395  0896                     	;# 
   396  0897                     	;# 
   397  0898                     	;# 
   398  0899                     	;# 
   399  089A                     	;# 
   400  089B                     	;# 
   401  090C                     	;# 
   402  090E                     	;# 
   403  090F                     	;# 
   404  091F                     	;# 
   405  098F                     	;# 
   406  098F                     	;# 
   407  0990                     	;# 
   408  0991                     	;# 
   409  0992                     	;# 
   410  0993                     	;# 
   411  0994                     	;# 
   412  0995                     	;# 
   413  0996                     	;# 
   414  0997                     	;# 
   415  1E0F                     	;# 
   416  1E10                     	;# 
   417  1E11                     	;# 
   418  1E12                     	;# 
   419  1E13                     	;# 
   420  1E14                     	;# 
   421  1E15                     	;# 
   422  1E16                     	;# 
   423  1E17                     	;# 
   424  1E18                     	;# 
   425  1E19                     	;# 
   426  1E1A                     	;# 
   427  1E1B                     	;# 
   428  1E1C                     	;# 
   429  1E1D                     	;# 
   430  1E1E                     	;# 
   431  1E1F                     	;# 
   432  1E20                     	;# 
   433  1E21                     	;# 
   434  1E22                     	;# 
   435  1E23                     	;# 
   436  1E24                     	;# 
   437  1E25                     	;# 
   438  1E26                     	;# 
   439  1E27                     	;# 
   440  1E28                     	;# 
   441  1E29                     	;# 
   442  1E2A                     	;# 
   443  1E2B                     	;# 
   444  1E2C                     	;# 
   445  1E2D                     	;# 
   446  1E2E                     	;# 
   447  1E2F                     	;# 
   448  1E30                     	;# 
   449  1E31                     	;# 
   450  1E32                     	;# 
   451  1E33                     	;# 
   452  1E34                     	;# 
   453  1E35                     	;# 
   454  1E36                     	;# 
   455  1E37                     	;# 
   456  1E8F                     	;# 
   457  1E90                     	;# 
   458  1E91                     	;# 
   459  1E92                     	;# 
   460  1E93                     	;# 
   461  1E94                     	;# 
   462  1E95                     	;# 
   463  1E96                     	;# 
   464  1E97                     	;# 
   465  1E9C                     	;# 
   466  1E9D                     	;# 
   467  1E9E                     	;# 
   468  1EA1                     	;# 
   469  1EA2                     	;# 
   470  1EA3                     	;# 
   471  1EA4                     	;# 
   472  1EA5                     	;# 
   473  1EA9                     	;# 
   474  1EAA                     	;# 
   475  1EAB                     	;# 
   476  1EAC                     	;# 
   477  1EB1                     	;# 
   478  1EB2                     	;# 
   479  1EB3                     	;# 
   480  1EB8                     	;# 
   481  1EB9                     	;# 
   482  1EBA                     	;# 
   483  1EBB                     	;# 
   484  1EBC                     	;# 
   485  1EBD                     	;# 
   486  1EBE                     	;# 
   487  1EC3                     	;# 
   488  1EC5                     	;# 
   489  1EC6                     	;# 
   490  1EC7                     	;# 
   491  1EC8                     	;# 
   492  1EC9                     	;# 
   493  1ECA                     	;# 
   494  1ECB                     	;# 
   495  1ECC                     	;# 
   496  1F10                     	;# 
   497  1F11                     	;# 
   498  1F12                     	;# 
   499  1F13                     	;# 
   500  1F14                     	;# 
   501  1F15                     	;# 
   502  1F16                     	;# 
   503  1F17                     	;# 
   504  1F18                     	;# 
   505  1F19                     	;# 
   506  1F1A                     	;# 
   507  1F1B                     	;# 
   508  1F1C                     	;# 
   509  1F1D                     	;# 
   510  1F1E                     	;# 
   511  1F1F                     	;# 
   512  1F20                     	;# 
   513  1F21                     	;# 
   514  1F22                     	;# 
   515  1F23                     	;# 
   516  1F24                     	;# 
   517  1F25                     	;# 
   518  1F26                     	;# 
   519  1F27                     	;# 
   520  1F38                     	;# 
   521  1F39                     	;# 
   522  1F3A                     	;# 
   523  1F3B                     	;# 
   524  1F3C                     	;# 
   525  1F3D                     	;# 
   526  1F3E                     	;# 
   527  1F3F                     	;# 
   528  1F40                     	;# 
   529  1F41                     	;# 
   530  1F43                     	;# 
   531  1F44                     	;# 
   532  1F45                     	;# 
   533  1F46                     	;# 
   534  1F47                     	;# 
   535  1F48                     	;# 
   536  1F49                     	;# 
   537  1F4A                     	;# 
   538  1F4B                     	;# 
   539  1F4C                     	;# 
   540  1F4E                     	;# 
   541  1F4F                     	;# 
   542  1F50                     	;# 
   543  1F51                     	;# 
   544  1F52                     	;# 
   545  1F53                     	;# 
   546  1F54                     	;# 
   547  1F55                     	;# 
   548  1F56                     	;# 
   549  1F57                     	;# 
   550  1F65                     	;# 
   551  1F68                     	;# 
   552  1F69                     	;# 
   553  1F6A                     	;# 
   554  1F6B                     	;# 
   555  1FE4                     	;# 
   556  1FE5                     	;# 
   557  1FE6                     	;# 
   558  1FE7                     	;# 
   559  1FE8                     	;# 
   560  1FE9                     	;# 
   561  1FEA                     	;# 
   562  1FEB                     	;# 
   563  1FED                     	;# 
   564  1FEE                     	;# 
   565  1FEF                     	;# 
   566  0000                     	;# 
   567  0001                     	;# 
   568  0002                     	;# 
   569  0003                     	;# 
   570  0004                     	;# 
   571  0005                     	;# 
   572  0006                     	;# 
   573  0007                     	;# 
   574  0008                     	;# 
   575  0009                     	;# 
   576  000A                     	;# 
   577  000B                     	;# 
   578  000C                     	;# 
   579  000D                     	;# 
   580  000E                     	;# 
   581  0010                     	;# 
   582  0011                     	;# 
   583  0012                     	;# 
   584  0013                     	;# 
   585  0016                     	;# 
   586  0017                     	;# 
   587  0018                     	;# 
   588  001C                     	;# 
   589  001C                     	;# 
   590  001D                     	;# 
   591  001D                     	;# 
   592  001E                     	;# 
   593  001F                     	;# 
   594  008C                     	;# 
   595  008C                     	;# 
   596  008D                     	;# 
   597  008E                     	;# 
   598  008E                     	;# 
   599  008F                     	;# 
   600  0090                     	;# 
   601  0090                     	;# 
   602  0091                     	;# 
   603  0093                     	;# 
   604  0094                     	;# 
   605  0095                     	;# 
   606  0096                     	;# 
   607  0097                     	;# 
   608  0098                     	;# 
   609  0099                     	;# 
   610  009A                     	;# 
   611  009B                     	;# 
   612  009C                     	;# 
   613  009D                     	;# 
   614  009E                     	;# 
   615  010C                     	;# 
   616  010D                     	;# 
   617  010E                     	;# 
   618  010E                     	;# 
   619  010F                     	;# 
   620  0110                     	;# 
   621  0110                     	;# 
   622  0111                     	;# 
   623  0112                     	;# 
   624  0112                     	;# 
   625  0113                     	;# 
   626  0114                     	;# 
   627  0114                     	;# 
   628  0115                     	;# 
   629  0116                     	;# 
   630  0116                     	;# 
   631  0117                     	;# 
   632  0119                     	;# 
   633  0119                     	;# 
   634  0119                     	;# 
   635  011A                     	;# 
   636  011A                     	;# 
   637  011A                     	;# 
   638  011B                     	;# 
   639  011B                     	;# 
   640  011B                     	;# 
   641  011B                     	;# 
   642  011B                     	;# 
   643  011C                     	;# 
   644  011C                     	;# 
   645  011C                     	;# 
   646  011D                     	;# 
   647  011D                     	;# 
   648  011D                     	;# 
   649  011E                     	;# 
   650  011E                     	;# 
   651  011E                     	;# 
   652  011F                     	;# 
   653  011F                     	;# 
   654  011F                     	;# 
   655  011F                     	;# 
   656  011F                     	;# 
   657  018C                     	;# 
   658  018D                     	;# 
   659  018E                     	;# 
   660  018F                     	;# 
   661  0190                     	;# 
   662  0191                     	;# 
   663  0192                     	;# 
   664  0196                     	;# 
   665  0197                     	;# 
   666  0198                     	;# 
   667  0199                     	;# 
   668  019A                     	;# 
   669  019B                     	;# 
   670  019C                     	;# 
   671  020C                     	;# 
   672  020C                     	;# 
   673  020D                     	;# 
   674  020E                     	;# 
   675  020F                     	;# 
   676  020F                     	;# 
   677  0210                     	;# 
   678  0210                     	;# 
   679  0211                     	;# 
   680  0211                     	;# 
   681  0212                     	;# 
   682  0212                     	;# 
   683  0213                     	;# 
   684  0214                     	;# 
   685  0215                     	;# 
   686  0215                     	;# 
   687  0216                     	;# 
   688  0216                     	;# 
   689  0217                     	;# 
   690  0217                     	;# 
   691  0218                     	;# 
   692  0218                     	;# 
   693  0219                     	;# 
   694  021A                     	;# 
   695  021B                     	;# 
   696  021B                     	;# 
   697  021C                     	;# 
   698  021C                     	;# 
   699  021D                     	;# 
   700  021D                     	;# 
   701  021E                     	;# 
   702  021F                     	;# 
   703  028C                     	;# 
   704  028C                     	;# 
   705  028D                     	;# 
   706  028D                     	;# 
   707  028E                     	;# 
   708  028F                     	;# 
   709  0290                     	;# 
   710  0290                     	;# 
   711  0291                     	;# 
   712  0292                     	;# 
   713  0292                     	;# 
   714  0293                     	;# 
   715  0293                     	;# 
   716  0294                     	;# 
   717  0295                     	;# 
   718  0296                     	;# 
   719  0296                     	;# 
   720  0297                     	;# 
   721  0298                     	;# 
   722  0298                     	;# 
   723  0299                     	;# 
   724  0299                     	;# 
   725  029A                     	;# 
   726  029B                     	;# 
   727  029C                     	;# 
   728  029C                     	;# 
   729  029D                     	;# 
   730  030C                     	;# 
   731  030C                     	;# 
   732  030D                     	;# 
   733  030E                     	;# 
   734  030F                     	;# 
   735  0310                     	;# 
   736  0310                     	;# 
   737  0311                     	;# 
   738  0312                     	;# 
   739  0313                     	;# 
   740  0314                     	;# 
   741  0314                     	;# 
   742  0315                     	;# 
   743  0316                     	;# 
   744  0317                     	;# 
   745  0318                     	;# 
   746  0318                     	;# 
   747  0319                     	;# 
   748  031A                     	;# 
   749  031B                     	;# 
   750  031C                     	;# 
   751  031C                     	;# 
   752  031D                     	;# 
   753  031E                     	;# 
   754  031F                     	;# 
   755  038C                     	;# 
   756  038D                     	;# 
   757  038E                     	;# 
   758  0390                     	;# 
   759  0391                     	;# 
   760  0392                     	;# 
   761  040C                     	;# 
   762  040D                     	;# 
   763  040E                     	;# 
   764  040F                     	;# 
   765  0410                     	;# 
   766  0411                     	;# 
   767  0416                     	;# 
   768  0416                     	;# 
   769  0417                     	;# 
   770  0418                     	;# 
   771  0418                     	;# 
   772  0419                     	;# 
   773  041A                     	;# 
   774  041A                     	;# 
   775  041B                     	;# 
   776  041C                     	;# 
   777  041C                     	;# 
   778  041D                     	;# 
   779  041E                     	;# 
   780  041F                     	;# 
   781  048C                     	;# 
   782  048C                     	;# 
   783  048D                     	;# 
   784  048E                     	;# 
   785  048F                     	;# 
   786  048F                     	;# 
   787  0490                     	;# 
   788  0491                     	;# 
   789  0492                     	;# 
   790  0492                     	;# 
   791  0493                     	;# 
   792  0494                     	;# 
   793  0495                     	;# 
   794  0495                     	;# 
   795  0496                     	;# 
   796  0497                     	;# 
   797  0498                     	;# 
   798  0499                     	;# 
   799  049A                     	;# 
   800  049B                     	;# 
   801  049C                     	;# 
   802  049D                     	;# 
   803  050C                     	;# 
   804  050C                     	;# 
   805  050D                     	;# 
   806  050E                     	;# 
   807  050F                     	;# 
   808  050F                     	;# 
   809  0510                     	;# 
   810  0511                     	;# 
   811  0512                     	;# 
   812  0512                     	;# 
   813  0513                     	;# 
   814  0514                     	;# 
   815  0515                     	;# 
   816  0515                     	;# 
   817  0516                     	;# 
   818  0517                     	;# 
   819  0518                     	;# 
   820  0519                     	;# 
   821  051A                     	;# 
   822  051B                     	;# 
   823  051C                     	;# 
   824  051D                     	;# 
   825  058C                     	;# 
   826  058C                     	;# 
   827  058D                     	;# 
   828  058E                     	;# 
   829  058F                     	;# 
   830  058F                     	;# 
   831  0590                     	;# 
   832  0591                     	;# 
   833  0592                     	;# 
   834  0593                     	;# 
   835  060C                     	;# 
   836  060D                     	;# 
   837  060E                     	;# 
   838  060F                     	;# 
   839  0610                     	;# 
   840  0611                     	;# 
   841  0612                     	;# 
   842  0613                     	;# 
   843  0614                     	;# 
   844  0616                     	;# 
   845  0617                     	;# 
   846  0618                     	;# 
   847  0619                     	;# 
   848  061A                     	;# 
   849  061B                     	;# 
   850  061C                     	;# 
   851  061D                     	;# 
   852  061E                     	;# 
   853  068C                     	;# 
   854  068D                     	;# 
   855  068E                     	;# 
   856  068F                     	;# 
   857  0690                     	;# 
   858  0691                     	;# 
   859  0692                     	;# 
   860  0693                     	;# 
   861  0694                     	;# 
   862  070C                     	;# 
   863  070D                     	;# 
   864  070E                     	;# 
   865  070F                     	;# 
   866  0710                     	;# 
   867  0711                     	;# 
   868  0712                     	;# 
   869  0713                     	;# 
   870  0714                     	;# 
   871  0716                     	;# 
   872  0717                     	;# 
   873  0718                     	;# 
   874  0719                     	;# 
   875  071A                     	;# 
   876  071B                     	;# 
   877  071C                     	;# 
   878  071D                     	;# 
   879  071E                     	;# 
   880  0796                     	;# 
   881  0797                     	;# 
   882  0798                     	;# 
   883  0799                     	;# 
   884  079A                     	;# 
   885  079B                     	;# 
   886  080C                     	;# 
   887  080D                     	;# 
   888  080E                     	;# 
   889  080F                     	;# 
   890  0810                     	;# 
   891  0811                     	;# 
   892  0812                     	;# 
   893  0813                     	;# 
   894  0814                     	;# 
   895  081A                     	;# 
   896  081B                     	;# 
   897  081C                     	;# 
   898  081D                     	;# 
   899  081E                     	;# 
   900  081F                     	;# 
   901  088C                     	;# 
   902  088D                     	;# 
   903  088E                     	;# 
   904  088F                     	;# 
   905  0890                     	;# 
   906  0891                     	;# 
   907  0892                     	;# 
   908  0893                     	;# 
   909  0895                     	;# 
   910  0896                     	;# 
   911  0897                     	;# 
   912  0898                     	;# 
   913  0899                     	;# 
   914  089A                     	;# 
   915  089B                     	;# 
   916  090C                     	;# 
   917  090E                     	;# 
   918  090F                     	;# 
   919  091F                     	;# 
   920  098F                     	;# 
   921  098F                     	;# 
   922  0990                     	;# 
   923  0991                     	;# 
   924  0992                     	;# 
   925  0993                     	;# 
   926  0994                     	;# 
   927  0995                     	;# 
   928  0996                     	;# 
   929  0997                     	;# 
   930  1E0F                     	;# 
   931  1E10                     	;# 
   932  1E11                     	;# 
   933  1E12                     	;# 
   934  1E13                     	;# 
   935  1E14                     	;# 
   936  1E15                     	;# 
   937  1E16                     	;# 
   938  1E17                     	;# 
   939  1E18                     	;# 
   940  1E19                     	;# 
   941  1E1A                     	;# 
   942  1E1B                     	;# 
   943  1E1C                     	;# 
   944  1E1D                     	;# 
   945  1E1E                     	;# 
   946  1E1F                     	;# 
   947  1E20                     	;# 
   948  1E21                     	;# 
   949  1E22                     	;# 
   950  1E23                     	;# 
   951  1E24                     	;# 
   952  1E25                     	;# 
   953  1E26                     	;# 
   954  1E27                     	;# 
   955  1E28                     	;# 
   956  1E29                     	;# 
   957  1E2A                     	;# 
   958  1E2B                     	;# 
   959  1E2C                     	;# 
   960  1E2D                     	;# 
   961  1E2E                     	;# 
   962  1E2F                     	;# 
   963  1E30                     	;# 
   964  1E31                     	;# 
   965  1E32                     	;# 
   966  1E33                     	;# 
   967  1E34                     	;# 
   968  1E35                     	;# 
   969  1E36                     	;# 
   970  1E37                     	;# 
   971  1E8F                     	;# 
   972  1E90                     	;# 
   973  1E91                     	;# 
   974  1E92                     	;# 
   975  1E93                     	;# 
   976  1E94                     	;# 
   977  1E95                     	;# 
   978  1E96                     	;# 
   979  1E97                     	;# 
   980  1E9C                     	;# 
   981  1E9D                     	;# 
   982  1E9E                     	;# 
   983  1EA1                     	;# 
   984  1EA2                     	;# 
   985  1EA3                     	;# 
   986  1EA4                     	;# 
   987  1EA5                     	;# 
   988  1EA9                     	;# 
   989  1EAA                     	;# 
   990  1EAB                     	;# 
   991  1EAC                     	;# 
   992  1EB1                     	;# 
   993  1EB2                     	;# 
   994  1EB3                     	;# 
   995  1EB8                     	;# 
   996  1EB9                     	;# 
   997  1EBA                     	;# 
   998  1EBB                     	;# 
   999  1EBC                     	;# 
  1000  1EBD                     	;# 
  1001  1EBE                     	;# 
  1002  1EC3                     	;# 
  1003  1EC5                     	;# 
  1004  1EC6                     	;# 
  1005  1EC7                     	;# 
  1006  1EC8                     	;# 
  1007  1EC9                     	;# 
  1008  1ECA                     	;# 
  1009  1ECB                     	;# 
  1010  1ECC                     	;# 
  1011  1F10                     	;# 
  1012  1F11                     	;# 
  1013  1F12                     	;# 
  1014  1F13                     	;# 
  1015  1F14                     	;# 
  1016  1F15                     	;# 
  1017  1F16                     	;# 
  1018  1F17                     	;# 
  1019  1F18                     	;# 
  1020  1F19                     	;# 
  1021  1F1A                     	;# 
  1022  1F1B                     	;# 
  1023  1F1C                     	;# 
  1024  1F1D                     	;# 
  1025  1F1E                     	;# 
  1026  1F1F                     	;# 
  1027  1F20                     	;# 
  1028  1F21                     	;# 
  1029  1F22                     	;# 
  1030  1F23                     	;# 
  1031  1F24                     	;# 
  1032  1F25                     	;# 
  1033  1F26                     	;# 
  1034  1F27                     	;# 
  1035  1F38                     	;# 
  1036  1F39                     	;# 
  1037  1F3A                     	;# 
  1038  1F3B                     	;# 
  1039  1F3C                     	;# 
  1040  1F3D                     	;# 
  1041  1F3E                     	;# 
  1042  1F3F                     	;# 
  1043  1F40                     	;# 
  1044  1F41                     	;# 
  1045  1F43                     	;# 
  1046  1F44                     	;# 
  1047  1F45                     	;# 
  1048  1F46                     	;# 
  1049  1F47                     	;# 
  1050  1F48                     	;# 
  1051  1F49                     	;# 
  1052  1F4A                     	;# 
  1053  1F4B                     	;# 
  1054  1F4C                     	;# 
  1055  1F4E                     	;# 
  1056  1F4F                     	;# 
  1057  1F50                     	;# 
  1058  1F51                     	;# 
  1059  1F52                     	;# 
  1060  1F53                     	;# 
  1061  1F54                     	;# 
  1062  1F55                     	;# 
  1063  1F56                     	;# 
  1064  1F57                     	;# 
  1065  1F65                     	;# 
  1066  1F68                     	;# 
  1067  1F69                     	;# 
  1068  1F6A                     	;# 
  1069  1F6B                     	;# 
  1070  1FE4                     	;# 
  1071  1FE5                     	;# 
  1072  1FE6                     	;# 
  1073  1FE7                     	;# 
  1074  1FE8                     	;# 
  1075  1FE9                     	;# 
  1076  1FEA                     	;# 
  1077  1FEB                     	;# 
  1078  1FED                     	;# 
  1079  1FEE                     	;# 
  1080  1FEF                     	;# 
  1081  0000                     	;# 
  1082  0001                     	;# 
  1083  0002                     	;# 
  1084  0003                     	;# 
  1085  0004                     	;# 
  1086  0005                     	;# 
  1087  0006                     	;# 
  1088  0007                     	;# 
  1089  0008                     	;# 
  1090  0009                     	;# 
  1091  000A                     	;# 
  1092  000B                     	;# 
  1093  000C                     	;# 
  1094  000D                     	;# 
  1095  000E                     	;# 
  1096  0010                     	;# 
  1097  0011                     	;# 
  1098  0012                     	;# 
  1099  0013                     	;# 
  1100  0016                     	;# 
  1101  0017                     	;# 
  1102  0018                     	;# 
  1103  001C                     	;# 
  1104  001C                     	;# 
  1105  001D                     	;# 
  1106  001D                     	;# 
  1107  001E                     	;# 
  1108  001F                     	;# 
  1109  008C                     	;# 
  1110  008C                     	;# 
  1111  008D                     	;# 
  1112  008E                     	;# 
  1113  008E                     	;# 
  1114  008F                     	;# 
  1115  0090                     	;# 
  1116  0090                     	;# 
  1117  0091                     	;# 
  1118  0093                     	;# 
  1119  0094                     	;# 
  1120  0095                     	;# 
  1121  0096                     	;# 
  1122  0097                     	;# 
  1123  0098                     	;# 
  1124  0099                     	;# 
  1125  009A                     	;# 
  1126  009B                     	;# 
  1127  009C                     	;# 
  1128  009D                     	;# 
  1129  009E                     	;# 
  1130  010C                     	;# 
  1131  010D                     	;# 
  1132  010E                     	;# 
  1133  010E                     	;# 
  1134  010F                     	;# 
  1135  0110                     	;# 
  1136  0110                     	;# 
  1137  0111                     	;# 
  1138  0112                     	;# 
  1139  0112                     	;# 
  1140  0113                     	;# 
  1141  0114                     	;# 
  1142  0114                     	;# 
  1143  0115                     	;# 
  1144  0116                     	;# 
  1145  0116                     	;# 
  1146  0117                     	;# 
  1147  0119                     	;# 
  1148  0119                     	;# 
  1149  0119                     	;# 
  1150  011A                     	;# 
  1151  011A                     	;# 
  1152  011A                     	;# 
  1153  011B                     	;# 
  1154  011B                     	;# 
  1155  011B                     	;# 
  1156  011B                     	;# 
  1157  011B                     	;# 
  1158  011C                     	;# 
  1159  011C                     	;# 
  1160  011C                     	;# 
  1161  011D                     	;# 
  1162  011D                     	;# 
  1163  011D                     	;# 
  1164  011E                     	;# 
  1165  011E                     	;# 
  1166  011E                     	;# 
  1167  011F                     	;# 
  1168  011F                     	;# 
  1169  011F                     	;# 
  1170  011F                     	;# 
  1171  011F                     	;# 
  1172  018C                     	;# 
  1173  018D                     	;# 
  1174  018E                     	;# 
  1175  018F                     	;# 
  1176  0190                     	;# 
  1177  0191                     	;# 
  1178  0192                     	;# 
  1179  0196                     	;# 
  1180  0197                     	;# 
  1181  0198                     	;# 
  1182  0199                     	;# 
  1183  019A                     	;# 
  1184  019B                     	;# 
  1185  019C                     	;# 
  1186  020C                     	;# 
  1187  020C                     	;# 
  1188  020D                     	;# 
  1189  020E                     	;# 
  1190  020F                     	;# 
  1191  020F                     	;# 
  1192  0210                     	;# 
  1193  0210                     	;# 
  1194  0211                     	;# 
  1195  0211                     	;# 
  1196  0212                     	;# 
  1197  0212                     	;# 
  1198  0213                     	;# 
  1199  0214                     	;# 
  1200  0215                     	;# 
  1201  0215                     	;# 
  1202  0216                     	;# 
  1203  0216                     	;# 
  1204  0217                     	;# 
  1205  0217                     	;# 
  1206  0218                     	;# 
  1207  0218                     	;# 
  1208  0219                     	;# 
  1209  021A                     	;# 
  1210  021B                     	;# 
  1211  021B                     	;# 
  1212  021C                     	;# 
  1213  021C                     	;# 
  1214  021D                     	;# 
  1215  021D                     	;# 
  1216  021E                     	;# 
  1217  021F                     	;# 
  1218  028C                     	;# 
  1219  028C                     	;# 
  1220  028D                     	;# 
  1221  028D                     	;# 
  1222  028E                     	;# 
  1223  028F                     	;# 
  1224  0290                     	;# 
  1225  0290                     	;# 
  1226  0291                     	;# 
  1227  0292                     	;# 
  1228  0292                     	;# 
  1229  0293                     	;# 
  1230  0293                     	;# 
  1231  0294                     	;# 
  1232  0295                     	;# 
  1233  0296                     	;# 
  1234  0296                     	;# 
  1235  0297                     	;# 
  1236  0298                     	;# 
  1237  0298                     	;# 
  1238  0299                     	;# 
  1239  0299                     	;# 
  1240  029A                     	;# 
  1241  029B                     	;# 
  1242  029C                     	;# 
  1243  029C                     	;# 
  1244  029D                     	;# 
  1245  030C                     	;# 
  1246  030C                     	;# 
  1247  030D                     	;# 
  1248  030E                     	;# 
  1249  030F                     	;# 
  1250  0310                     	;# 
  1251  0310                     	;# 
  1252  0311                     	;# 
  1253  0312                     	;# 
  1254  0313                     	;# 
  1255  0314                     	;# 
  1256  0314                     	;# 
  1257  0315                     	;# 
  1258  0316                     	;# 
  1259  0317                     	;# 
  1260  0318                     	;# 
  1261  0318                     	;# 
  1262  0319                     	;# 
  1263  031A                     	;# 
  1264  031B                     	;# 
  1265  031C                     	;# 
  1266  031C                     	;# 
  1267  031D                     	;# 
  1268  031E                     	;# 
  1269  031F                     	;# 
  1270  038C                     	;# 
  1271  038D                     	;# 
  1272  038E                     	;# 
  1273  0390                     	;# 
  1274  0391                     	;# 
  1275  0392                     	;# 
  1276  040C                     	;# 
  1277  040D                     	;# 
  1278  040E                     	;# 
  1279  040F                     	;# 
  1280  0410                     	;# 
  1281  0411                     	;# 
  1282  0416                     	;# 
  1283  0416                     	;# 
  1284  0417                     	;# 
  1285  0418                     	;# 
  1286  0418                     	;# 
  1287  0419                     	;# 
  1288  041A                     	;# 
  1289  041A                     	;# 
  1290  041B                     	;# 
  1291  041C                     	;# 
  1292  041C                     	;# 
  1293  041D                     	;# 
  1294  041E                     	;# 
  1295  041F                     	;# 
  1296  048C                     	;# 
  1297  048C                     	;# 
  1298  048D                     	;# 
  1299  048E                     	;# 
  1300  048F                     	;# 
  1301  048F                     	;# 
  1302  0490                     	;# 
  1303  0491                     	;# 
  1304  0492                     	;# 
  1305  0492                     	;# 
  1306  0493                     	;# 
  1307  0494                     	;# 
  1308  0495                     	;# 
  1309  0495                     	;# 
  1310  0496                     	;# 
  1311  0497                     	;# 
  1312  0498                     	;# 
  1313  0499                     	;# 
  1314  049A                     	;# 
  1315  049B                     	;# 
  1316  049C                     	;# 
  1317  049D                     	;# 
  1318  050C                     	;# 
  1319  050C                     	;# 
  1320  050D                     	;# 
  1321  050E                     	;# 
  1322  050F                     	;# 
  1323  050F                     	;# 
  1324  0510                     	;# 
  1325  0511                     	;# 
  1326  0512                     	;# 
  1327  0512                     	;# 
  1328  0513                     	;# 
  1329  0514                     	;# 
  1330  0515                     	;# 
  1331  0515                     	;# 
  1332  0516                     	;# 
  1333  0517                     	;# 
  1334  0518                     	;# 
  1335  0519                     	;# 
  1336  051A                     	;# 
  1337  051B                     	;# 
  1338  051C                     	;# 
  1339  051D                     	;# 
  1340  058C                     	;# 
  1341  058C                     	;# 
  1342  058D                     	;# 
  1343  058E                     	;# 
  1344  058F                     	;# 
  1345  058F                     	;# 
  1346  0590                     	;# 
  1347  0591                     	;# 
  1348  0592                     	;# 
  1349  0593                     	;# 
  1350  060C                     	;# 
  1351  060D                     	;# 
  1352  060E                     	;# 
  1353  060F                     	;# 
  1354  0610                     	;# 
  1355  0611                     	;# 
  1356  0612                     	;# 
  1357  0613                     	;# 
  1358  0614                     	;# 
  1359  0616                     	;# 
  1360  0617                     	;# 
  1361  0618                     	;# 
  1362  0619                     	;# 
  1363  061A                     	;# 
  1364  061B                     	;# 
  1365  061C                     	;# 
  1366  061D                     	;# 
  1367  061E                     	;# 
  1368  068C                     	;# 
  1369  068D                     	;# 
  1370  068E                     	;# 
  1371  068F                     	;# 
  1372  0690                     	;# 
  1373  0691                     	;# 
  1374  0692                     	;# 
  1375  0693                     	;# 
  1376  0694                     	;# 
  1377  070C                     	;# 
  1378  070D                     	;# 
  1379  070E                     	;# 
  1380  070F                     	;# 
  1381  0710                     	;# 
  1382  0711                     	;# 
  1383  0712                     	;# 
  1384  0713                     	;# 
  1385  0714                     	;# 
  1386  0716                     	;# 
  1387  0717                     	;# 
  1388  0718                     	;# 
  1389  0719                     	;# 
  1390  071A                     	;# 
  1391  071B                     	;# 
  1392  071C                     	;# 
  1393  071D                     	;# 
  1394  071E                     	;# 
  1395  0796                     	;# 
  1396  0797                     	;# 
  1397  0798                     	;# 
  1398  0799                     	;# 
  1399  079A                     	;# 
  1400  079B                     	;# 
  1401  080C                     	;# 
  1402  080D                     	;# 
  1403  080E                     	;# 
  1404  080F                     	;# 
  1405  0810                     	;# 
  1406  0811                     	;# 
  1407  0812                     	;# 
  1408  0813                     	;# 
  1409  0814                     	;# 
  1410  081A                     	;# 
  1411  081B                     	;# 
  1412  081C                     	;# 
  1413  081D                     	;# 
  1414  081E                     	;# 
  1415  081F                     	;# 
  1416  088C                     	;# 
  1417  088D                     	;# 
  1418  088E                     	;# 
  1419  088F                     	;# 
  1420  0890                     	;# 
  1421  0891                     	;# 
  1422  0892                     	;# 
  1423  0893                     	;# 
  1424  0895                     	;# 
  1425  0896                     	;# 
  1426  0897                     	;# 
  1427  0898                     	;# 
  1428  0899                     	;# 
  1429  089A                     	;# 
  1430  089B                     	;# 
  1431  090C                     	;# 
  1432  090E                     	;# 
  1433  090F                     	;# 
  1434  091F                     	;# 
  1435  098F                     	;# 
  1436  098F                     	;# 
  1437  0990                     	;# 
  1438  0991                     	;# 
  1439  0992                     	;# 
  1440  0993                     	;# 
  1441  0994                     	;# 
  1442  0995                     	;# 
  1443  0996                     	;# 
  1444  0997                     	;# 
  1445  1E0F                     	;# 
  1446  1E10                     	;# 
  1447  1E11                     	;# 
  1448  1E12                     	;# 
  1449  1E13                     	;# 
  1450  1E14                     	;# 
  1451  1E15                     	;# 
  1452  1E16                     	;# 
  1453  1E17                     	;# 
  1454  1E18                     	;# 
  1455  1E19                     	;# 
  1456  1E1A                     	;# 
  1457  1E1B                     	;# 
  1458  1E1C                     	;# 
  1459  1E1D                     	;# 
  1460  1E1E                     	;# 
  1461  1E1F                     	;# 
  1462  1E20                     	;# 
  1463  1E21                     	;# 
  1464  1E22                     	;# 
  1465  1E23                     	;# 
  1466  1E24                     	;# 
  1467  1E25                     	;# 
  1468  1E26                     	;# 
  1469  1E27                     	;# 
  1470  1E28                     	;# 
  1471  1E29                     	;# 
  1472  1E2A                     	;# 
  1473  1E2B                     	;# 
  1474  1E2C                     	;# 
  1475  1E2D                     	;# 
  1476  1E2E                     	;# 
  1477  1E2F                     	;# 
  1478  1E30                     	;# 
  1479  1E31                     	;# 
  1480  1E32                     	;# 
  1481  1E33                     	;# 
  1482  1E34                     	;# 
  1483  1E35                     	;# 
  1484  1E36                     	;# 
  1485  1E37                     	;# 
  1486  1E8F                     	;# 
  1487  1E90                     	;# 
  1488  1E91                     	;# 
  1489  1E92                     	;# 
  1490  1E93                     	;# 
  1491  1E94                     	;# 
  1492  1E95                     	;# 
  1493  1E96                     	;# 
  1494  1E97                     	;# 
  1495  1E9C                     	;# 
  1496  1E9D                     	;# 
  1497  1E9E                     	;# 
  1498  1EA1                     	;# 
  1499  1EA2                     	;# 
  1500  1EA3                     	;# 
  1501  1EA4                     	;# 
  1502  1EA5                     	;# 
  1503  1EA9                     	;# 
  1504  1EAA                     	;# 
  1505  1EAB                     	;# 
  1506  1EAC                     	;# 
  1507  1EB1                     	;# 
  1508  1EB2                     	;# 
  1509  1EB3                     	;# 
  1510  1EB8                     	;# 
  1511  1EB9                     	;# 
  1512  1EBA                     	;# 
  1513  1EBB                     	;# 
  1514  1EBC                     	;# 
  1515  1EBD                     	;# 
  1516  1EBE                     	;# 
  1517  1EC3                     	;# 
  1518  1EC5                     	;# 
  1519  1EC6                     	;# 
  1520  1EC7                     	;# 
  1521  1EC8                     	;# 
  1522  1EC9                     	;# 
  1523  1ECA                     	;# 
  1524  1ECB                     	;# 
  1525  1ECC                     	;# 
  1526  1F10                     	;# 
  1527  1F11                     	;# 
  1528  1F12                     	;# 
  1529  1F13                     	;# 
  1530  1F14                     	;# 
  1531  1F15                     	;# 
  1532  1F16                     	;# 
  1533  1F17                     	;# 
  1534  1F18                     	;# 
  1535  1F19                     	;# 
  1536  1F1A                     	;# 
  1537  1F1B                     	;# 
  1538  1F1C                     	;# 
  1539  1F1D                     	;# 
  1540  1F1E                     	;# 
  1541  1F1F                     	;# 
  1542  1F20                     	;# 
  1543  1F21                     	;# 
  1544  1F22                     	;# 
  1545  1F23                     	;# 
  1546  1F24                     	;# 
  1547  1F25                     	;# 
  1548  1F26                     	;# 
  1549  1F27                     	;# 
  1550  1F38                     	;# 
  1551  1F39                     	;# 
  1552  1F3A                     	;# 
  1553  1F3B                     	;# 
  1554  1F3C                     	;# 
  1555  1F3D                     	;# 
  1556  1F3E                     	;# 
  1557  1F3F                     	;# 
  1558  1F40                     	;# 
  1559  1F41                     	;# 
  1560  1F43                     	;# 
  1561  1F44                     	;# 
  1562  1F45                     	;# 
  1563  1F46                     	;# 
  1564  1F47                     	;# 
  1565  1F48                     	;# 
  1566  1F49                     	;# 
  1567  1F4A                     	;# 
  1568  1F4B                     	;# 
  1569  1F4C                     	;# 
  1570  1F4E                     	;# 
  1571  1F4F                     	;# 
  1572  1F50                     	;# 
  1573  1F51                     	;# 
  1574  1F52                     	;# 
  1575  1F53                     	;# 
  1576  1F54                     	;# 
  1577  1F55                     	;# 
  1578  1F56                     	;# 
  1579  1F57                     	;# 
  1580  1F65                     	;# 
  1581  1F68                     	;# 
  1582  1F69                     	;# 
  1583  1F6A                     	;# 
  1584  1F6B                     	;# 
  1585  1FE4                     	;# 
  1586  1FE5                     	;# 
  1587  1FE6                     	;# 
  1588  1FE7                     	;# 
  1589  1FE8                     	;# 
  1590  1FE9                     	;# 
  1591  1FEA                     	;# 
  1592  1FEB                     	;# 
  1593  1FED                     	;# 
  1594  1FEE                     	;# 
  1595  1FEF                     	;# 
  1596  0000                     	;# 
  1597  0001                     	;# 
  1598  0002                     	;# 
  1599  0003                     	;# 
  1600  0004                     	;# 
  1601  0005                     	;# 
  1602  0006                     	;# 
  1603  0007                     	;# 
  1604  0008                     	;# 
  1605  0009                     	;# 
  1606  000A                     	;# 
  1607  000B                     	;# 
  1608  000C                     	;# 
  1609  000D                     	;# 
  1610  000E                     	;# 
  1611  0010                     	;# 
  1612  0011                     	;# 
  1613  0012                     	;# 
  1614  0013                     	;# 
  1615  0016                     	;# 
  1616  0017                     	;# 
  1617  0018                     	;# 
  1618  001C                     	;# 
  1619  001C                     	;# 
  1620  001D                     	;# 
  1621  001D                     	;# 
  1622  001E                     	;# 
  1623  001F                     	;# 
  1624  008C                     	;# 
  1625  008C                     	;# 
  1626  008D                     	;# 
  1627  008E                     	;# 
  1628  008E                     	;# 
  1629  008F                     	;# 
  1630  0090                     	;# 
  1631  0090                     	;# 
  1632  0091                     	;# 
  1633  0093                     	;# 
  1634  0094                     	;# 
  1635  0095                     	;# 
  1636  0096                     	;# 
  1637  0097                     	;# 
  1638  0098                     	;# 
  1639  0099                     	;# 
  1640  009A                     	;# 
  1641  009B                     	;# 
  1642  009C                     	;# 
  1643  009D                     	;# 
  1644  009E                     	;# 
  1645  010C                     	;# 
  1646  010D                     	;# 
  1647  010E                     	;# 
  1648  010E                     	;# 
  1649  010F                     	;# 
  1650  0110                     	;# 
  1651  0110                     	;# 
  1652  0111                     	;# 
  1653  0112                     	;# 
  1654  0112                     	;# 
  1655  0113                     	;# 
  1656  0114                     	;# 
  1657  0114                     	;# 
  1658  0115                     	;# 
  1659  0116                     	;# 
  1660  0116                     	;# 
  1661  0117                     	;# 
  1662  0119                     	;# 
  1663  0119                     	;# 
  1664  0119                     	;# 
  1665  011A                     	;# 
  1666  011A                     	;# 
  1667  011A                     	;# 
  1668  011B                     	;# 
  1669  011B                     	;# 
  1670  011B                     	;# 
  1671  011B                     	;# 
  1672  011B                     	;# 
  1673  011C                     	;# 
  1674  011C                     	;# 
  1675  011C                     	;# 
  1676  011D                     	;# 
  1677  011D                     	;# 
  1678  011D                     	;# 
  1679  011E                     	;# 
  1680  011E                     	;# 
  1681  011E                     	;# 
  1682  011F                     	;# 
  1683  011F                     	;# 
  1684  011F                     	;# 
  1685  011F                     	;# 
  1686  011F                     	;# 
  1687  018C                     	;# 
  1688  018D                     	;# 
  1689  018E                     	;# 
  1690  018F                     	;# 
  1691  0190                     	;# 
  1692  0191                     	;# 
  1693  0192                     	;# 
  1694  0196                     	;# 
  1695  0197                     	;# 
  1696  0198                     	;# 
  1697  0199                     	;# 
  1698  019A                     	;# 
  1699  019B                     	;# 
  1700  019C                     	;# 
  1701  020C                     	;# 
  1702  020C                     	;# 
  1703  020D                     	;# 
  1704  020E                     	;# 
  1705  020F                     	;# 
  1706  020F                     	;# 
  1707  0210                     	;# 
  1708  0210                     	;# 
  1709  0211                     	;# 
  1710  0211                     	;# 
  1711  0212                     	;# 
  1712  0212                     	;# 
  1713  0213                     	;# 
  1714  0214                     	;# 
  1715  0215                     	;# 
  1716  0215                     	;# 
  1717  0216                     	;# 
  1718  0216                     	;# 
  1719  0217                     	;# 
  1720  0217                     	;# 
  1721  0218                     	;# 
  1722  0218                     	;# 
  1723  0219                     	;# 
  1724  021A                     	;# 
  1725  021B                     	;# 
  1726  021B                     	;# 
  1727  021C                     	;# 
  1728  021C                     	;# 
  1729  021D                     	;# 
  1730  021D                     	;# 
  1731  021E                     	;# 
  1732  021F                     	;# 
  1733  028C                     	;# 
  1734  028C                     	;# 
  1735  028D                     	;# 
  1736  028D                     	;# 
  1737  028E                     	;# 
  1738  028F                     	;# 
  1739  0290                     	;# 
  1740  0290                     	;# 
  1741  0291                     	;# 
  1742  0292                     	;# 
  1743  0292                     	;# 
  1744  0293                     	;# 
  1745  0293                     	;# 
  1746  0294                     	;# 
  1747  0295                     	;# 
  1748  0296                     	;# 
  1749  0296                     	;# 
  1750  0297                     	;# 
  1751  0298                     	;# 
  1752  0298                     	;# 
  1753  0299                     	;# 
  1754  0299                     	;# 
  1755  029A                     	;# 
  1756  029B                     	;# 
  1757  029C                     	;# 
  1758  029C                     	;# 
  1759  029D                     	;# 
  1760  030C                     	;# 
  1761  030C                     	;# 
  1762  030D                     	;# 
  1763  030E                     	;# 
  1764  030F                     	;# 
  1765  0310                     	;# 
  1766  0310                     	;# 
  1767  0311                     	;# 
  1768  0312                     	;# 
  1769  0313                     	;# 
  1770  0314                     	;# 
  1771  0314                     	;# 
  1772  0315                     	;# 
  1773  0316                     	;# 
  1774  0317                     	;# 
  1775  0318                     	;# 
  1776  0318                     	;# 
  1777  0319                     	;# 
  1778  031A                     	;# 
  1779  031B                     	;# 
  1780  031C                     	;# 
  1781  031C                     	;# 
  1782  031D                     	;# 
  1783  031E                     	;# 
  1784  031F                     	;# 
  1785  038C                     	;# 
  1786  038D                     	;# 
  1787  038E                     	;# 
  1788  0390                     	;# 
  1789  0391                     	;# 
  1790  0392                     	;# 
  1791  040C                     	;# 
  1792  040D                     	;# 
  1793  040E                     	;# 
  1794  040F                     	;# 
  1795  0410                     	;# 
  1796  0411                     	;# 
  1797  0416                     	;# 
  1798  0416                     	;# 
  1799  0417                     	;# 
  1800  0418                     	;# 
  1801  0418                     	;# 
  1802  0419                     	;# 
  1803  041A                     	;# 
  1804  041A                     	;# 
  1805  041B                     	;# 
  1806  041C                     	;# 
  1807  041C                     	;# 
  1808  041D                     	;# 
  1809  041E                     	;# 
  1810  041F                     	;# 
  1811  048C                     	;# 
  1812  048C                     	;# 
  1813  048D                     	;# 
  1814  048E                     	;# 
  1815  048F                     	;# 
  1816  048F                     	;# 
  1817  0490                     	;# 
  1818  0491                     	;# 
  1819  0492                     	;# 
  1820  0492                     	;# 
  1821  0493                     	;# 
  1822  0494                     	;# 
  1823  0495                     	;# 
  1824  0495                     	;# 
  1825  0496                     	;# 
  1826  0497                     	;# 
  1827  0498                     	;# 
  1828  0499                     	;# 
  1829  049A                     	;# 
  1830  049B                     	;# 
  1831  049C                     	;# 
  1832  049D                     	;# 
  1833  050C                     	;# 
  1834  050C                     	;# 
  1835  050D                     	;# 
  1836  050E                     	;# 
  1837  050F                     	;# 
  1838  050F                     	;# 
  1839  0510                     	;# 
  1840  0511                     	;# 
  1841  0512                     	;# 
  1842  0512                     	;# 
  1843  0513                     	;# 
  1844  0514                     	;# 
  1845  0515                     	;# 
  1846  0515                     	;# 
  1847  0516                     	;# 
  1848  0517                     	;# 
  1849  0518                     	;# 
  1850  0519                     	;# 
  1851  051A                     	;# 
  1852  051B                     	;# 
  1853  051C                     	;# 
  1854  051D                     	;# 
  1855  058C                     	;# 
  1856  058C                     	;# 
  1857  058D                     	;# 
  1858  058E                     	;# 
  1859  058F                     	;# 
  1860  058F                     	;# 
  1861  0590                     	;# 
  1862  0591                     	;# 
  1863  0592                     	;# 
  1864  0593                     	;# 
  1865  060C                     	;# 
  1866  060D                     	;# 
  1867  060E                     	;# 
  1868  060F                     	;# 
  1869  0610                     	;# 
  1870  0611                     	;# 
  1871  0612                     	;# 
  1872  0613                     	;# 
  1873  0614                     	;# 
  1874  0616                     	;# 
  1875  0617                     	;# 
  1876  0618                     	;# 
  1877  0619                     	;# 
  1878  061A                     	;# 
  1879  061B                     	;# 
  1880  061C                     	;# 
  1881  061D                     	;# 
  1882  061E                     	;# 
  1883  068C                     	;# 
  1884  068D                     	;# 
  1885  068E                     	;# 
  1886  068F                     	;# 
  1887  0690                     	;# 
  1888  0691                     	;# 
  1889  0692                     	;# 
  1890  0693                     	;# 
  1891  0694                     	;# 
  1892  070C                     	;# 
  1893  070D                     	;# 
  1894  070E                     	;# 
  1895  070F                     	;# 
  1896  0710                     	;# 
  1897  0711                     	;# 
  1898  0712                     	;# 
  1899  0713                     	;# 
  1900  0714                     	;# 
  1901  0716                     	;# 
  1902  0717                     	;# 
  1903  0718                     	;# 
  1904  0719                     	;# 
  1905  071A                     	;# 
  1906  071B                     	;# 
  1907  071C                     	;# 
  1908  071D                     	;# 
  1909  071E                     	;# 
  1910  0796                     	;# 
  1911  0797                     	;# 
  1912  0798                     	;# 
  1913  0799                     	;# 
  1914  079A                     	;# 
  1915  079B                     	;# 
  1916  080C                     	;# 
  1917  080D                     	;# 
  1918  080E                     	;# 
  1919  080F                     	;# 
  1920  0810                     	;# 
  1921  0811                     	;# 
  1922  0812                     	;# 
  1923  0813                     	;# 
  1924  0814                     	;# 
  1925  081A                     	;# 
  1926  081B                     	;# 
  1927  081C                     	;# 
  1928  081D                     	;# 
  1929  081E                     	;# 
  1930  081F                     	;# 
  1931  088C                     	;# 
  1932  088D                     	;# 
  1933  088E                     	;# 
  1934  088F                     	;# 
  1935  0890                     	;# 
  1936  0891                     	;# 
  1937  0892                     	;# 
  1938  0893                     	;# 
  1939  0895                     	;# 
  1940  0896                     	;# 
  1941  0897                     	;# 
  1942  0898                     	;# 
  1943  0899                     	;# 
  1944  089A                     	;# 
  1945  089B                     	;# 
  1946  090C                     	;# 
  1947  090E                     	;# 
  1948  090F                     	;# 
  1949  091F                     	;# 
  1950  098F                     	;# 
  1951  098F                     	;# 
  1952  0990                     	;# 
  1953  0991                     	;# 
  1954  0992                     	;# 
  1955  0993                     	;# 
  1956  0994                     	;# 
  1957  0995                     	;# 
  1958  0996                     	;# 
  1959  0997                     	;# 
  1960  1E0F                     	;# 
  1961  1E10                     	;# 
  1962  1E11                     	;# 
  1963  1E12                     	;# 
  1964  1E13                     	;# 
  1965  1E14                     	;# 
  1966  1E15                     	;# 
  1967  1E16                     	;# 
  1968  1E17                     	;# 
  1969  1E18                     	;# 
  1970  1E19                     	;# 
  1971  1E1A                     	;# 
  1972  1E1B                     	;# 
  1973  1E1C                     	;# 
  1974  1E1D                     	;# 
  1975  1E1E                     	;# 
  1976  1E1F                     	;# 
  1977  1E20                     	;# 
  1978  1E21                     	;# 
  1979  1E22                     	;# 
  1980  1E23                     	;# 
  1981  1E24                     	;# 
  1982  1E25                     	;# 
  1983  1E26                     	;# 
  1984  1E27                     	;# 
  1985  1E28                     	;# 
  1986  1E29                     	;# 
  1987  1E2A                     	;# 
  1988  1E2B                     	;# 
  1989  1E2C                     	;# 
  1990  1E2D                     	;# 
  1991  1E2E                     	;# 
  1992  1E2F                     	;# 
  1993  1E30                     	;# 
  1994  1E31                     	;# 
  1995  1E32                     	;# 
  1996  1E33                     	;# 
  1997  1E34                     	;# 
  1998  1E35                     	;# 
  1999  1E36                     	;# 
  2000  1E37                     	;# 
  2001  1E8F                     	;# 
  2002  1E90                     	;# 
  2003  1E91                     	;# 
  2004  1E92                     	;# 
  2005  1E93                     	;# 
  2006  1E94                     	;# 
  2007  1E95                     	;# 
  2008  1E96                     	;# 
  2009  1E97                     	;# 
  2010  1E9C                     	;# 
  2011  1E9D                     	;# 
  2012  1E9E                     	;# 
  2013  1EA1                     	;# 
  2014  1EA2                     	;# 
  2015  1EA3                     	;# 
  2016  1EA4                     	;# 
  2017  1EA5                     	;# 
  2018  1EA9                     	;# 
  2019  1EAA                     	;# 
  2020  1EAB                     	;# 
  2021  1EAC                     	;# 
  2022  1EB1                     	;# 
  2023  1EB2                     	;# 
  2024  1EB3                     	;# 
  2025  1EB8                     	;# 
  2026  1EB9                     	;# 
  2027  1EBA                     	;# 
  2028  1EBB                     	;# 
  2029  1EBC                     	;# 
  2030  1EBD                     	;# 
  2031  1EBE                     	;# 
  2032  1EC3                     	;# 
  2033  1EC5                     	;# 
  2034  1EC6                     	;# 
  2035  1EC7                     	;# 
  2036  1EC8                     	;# 
  2037  1EC9                     	;# 
  2038  1ECA                     	;# 
  2039  1ECB                     	;# 
  2040  1ECC                     	;# 
  2041  1F10                     	;# 
  2042  1F11                     	;# 
  2043  1F12                     	;# 
  2044  1F13                     	;# 
  2045  1F14                     	;# 
  2046  1F15                     	;# 
  2047  1F16                     	;# 
  2048  1F17                     	;# 
  2049  1F18                     	;# 
  2050  1F19                     	;# 
  2051  1F1A                     	;# 
  2052  1F1B                     	;# 
  2053  1F1C                     	;# 
  2054  1F1D                     	;# 
  2055  1F1E                     	;# 
  2056  1F1F                     	;# 
  2057  1F20                     	;# 
  2058  1F21                     	;# 
  2059  1F22                     	;# 
  2060  1F23                     	;# 
  2061  1F24                     	;# 
  2062  1F25                     	;# 
  2063  1F26                     	;# 
  2064  1F27                     	;# 
  2065  1F38                     	;# 
  2066  1F39                     	;# 
  2067  1F3A                     	;# 
  2068  1F3B                     	;# 
  2069  1F3C                     	;# 
  2070  1F3D                     	;# 
  2071  1F3E                     	;# 
  2072  1F3F                     	;# 
  2073  1F40                     	;# 
  2074  1F41                     	;# 
  2075  1F43                     	;# 
  2076  1F44                     	;# 
  2077  1F45                     	;# 
  2078  1F46                     	;# 
  2079  1F47                     	;# 
  2080  1F48                     	;# 
  2081  1F49                     	;# 
  2082  1F4A                     	;# 
  2083  1F4B                     	;# 
  2084  1F4C                     	;# 
  2085  1F4E                     	;# 
  2086  1F4F                     	;# 
  2087  1F50                     	;# 
  2088  1F51                     	;# 
  2089  1F52                     	;# 
  2090  1F53                     	;# 
  2091  1F54                     	;# 
  2092  1F55                     	;# 
  2093  1F56                     	;# 
  2094  1F57                     	;# 
  2095  1F65                     	;# 
  2096  1F68                     	;# 
  2097  1F69                     	;# 
  2098  1F6A                     	;# 
  2099  1F6B                     	;# 
  2100  1FE4                     	;# 
  2101  1FE5                     	;# 
  2102  1FE6                     	;# 
  2103  1FE7                     	;# 
  2104  1FE8                     	;# 
  2105  1FE9                     	;# 
  2106  1FEA                     	;# 
  2107  1FEB                     	;# 
  2108  1FED                     	;# 
  2109  1FEE                     	;# 
  2110  1FEF                     	;# 
  2111  000C                     _PORTA	set	12
  2112  0011                     _TRISAbits	set	17
  2113  000D                     _PORTB	set	13
  2114  0011                     _TRISA	set	17
  2115  0013                     _TRISC	set	19
  2116  0012                     _TRISB	set	18
  2117  0018                     _LATC	set	24
  2118  0016                     _LATA	set	22
  2119  0017                     _LATB	set	23
  2120  005F                     _GIE	set	95
  2121  008C                     _ADRESL	set	140
  2122  008D                     _ADRESH	set	141
  2123  009E                     _ADPCH	set	158
  2124  009A                     _ADREF	set	154
  2125  0093                     _ADCON0	set	147
  2126  009C                     _ADPRE	set	156
  2127  009B                     _ADCAP	set	155
  2128  0097                     _ADSTAT	set	151
  2129  0099                     _ADACT	set	153
  2130  0096                     _ADCON3	set	150
  2131  0095                     _ADCON2	set	149
  2132  0094                     _ADCON1	set	148
  2133  011A                     _TX1REG	set	282
  2134  0119                     _RC1REG	set	281
  2135  011D                     _RC1STAbits	set	285
  2136  011C                     _SP1BRGH	set	284
  2137  011B                     _SP1BRGL	set	283
  2138  011E                     _TX1STA	set	286
  2139  011D                     _RC1STA	set	285
  2140  011F                     _BAUD1CON	set	287
  2141  070F                     _PIR3bits	set	1807
  2142  0892                     _OSCTUNE	set	2194
  2143  0890                     _OSCSTAT	set	2192
  2144  0893                     _OSCFRQ	set	2195
  2145  0891                     _OSCEN	set	2193
  2146  088F                     _OSCCON3	set	2191
  2147  088D                     _OSCCON1	set	2189
  2148  1ECB                     _RXPPS	set	7883
  2149  1E8F                     _PPSLOCKbits	set	7823
  2150  1E8F                     _PPSLOCK	set	7823
  2151  1F38                     _ANSELAbits	set	7992
  2152  1F23                     _RC3PPS	set	7971
  2153  1F26                     _RC6PPS	set	7974
  2154  1F4E                     _ANSELC	set	8014
  2155  1F43                     _ANSELB	set	8003
  2156  1F38                     _ANSELA	set	7992
  2157  1F4F                     _WPUC	set	8015
  2158  1F44                     _WPUB	set	8004
  2159  1F39                     _WPUA	set	7993
  2160                           
  2161                           ; #config settings
  2162  0000                     
  2163                           	psect	cinit
  2164  07FD                     start_initialization:	
  2165  07FD                     __initialization:	
  2166  07FD                     end_of_initialization:	
  2167                           ;End of C runtime variable initialization code
  2168                           
  2169  07FD                     __end_of__initialization:	
  2170  07FD  0140               	movlb	0
  2171  07FE  3187  2FB7         	ljmp	_main	;jump to C main() function
  2172                           
  2173                           	psect	cstackCOMMON
  2174  0070                     __pcstackCOMMON:	
  2175  0070                     ?_PIN_MANAGER_Initialize:	
  2176  0070                     ??_PIN_MANAGER_Initialize:	
  2177                           ; 1 bytes @ 0x0
  2178                           
  2179  0070                     ?_OSCILLATOR_Initialize:	
  2180                           ; 1 bytes @ 0x0
  2181                           
  2182  0070                     ??_OSCILLATOR_Initialize:	
  2183                           ; 1 bytes @ 0x0
  2184                           
  2185  0070                     ?_EUSART_Initialize:	
  2186                           ; 1 bytes @ 0x0
  2187                           
  2188  0070                     ??_EUSART_Initialize:	
  2189                           ; 1 bytes @ 0x0
  2190                           
  2191  0070                     ?_SYSTEM_Initialize:	
  2192                           ; 1 bytes @ 0x0
  2193                           
  2194  0070                     ?_servoRotate90:	
  2195                           ; 1 bytes @ 0x0
  2196                           
  2197  0070                     ??_servoRotate90:	
  2198                           ; 1 bytes @ 0x0
  2199                           
  2200  0070                     ?_servoRotate180:	
  2201                           ; 1 bytes @ 0x0
  2202                           
  2203  0070                     ??_servoRotate180:	
  2204                           ; 1 bytes @ 0x0
  2205                           
  2206  0070                     ?_ADC_Init:	
  2207                           ; 1 bytes @ 0x0
  2208                           
  2209  0070                     ??_ADC_Init:	
  2210                           ; 1 bytes @ 0x0
  2211                           
  2212  0070                     ?_main:	
  2213                           ; 1 bytes @ 0x0
  2214                           
  2215  0070                     ?_ADC_conversion_results:	
  2216                           ; 1 bytes @ 0x0
  2217                           
  2218  0070                     PIN_MANAGER_Initialize@state:	
  2219                           ; 2 bytes @ 0x0
  2220                           
  2221                           
  2222                           ; 1 bytes @ 0x0
  2223  0070                     	ds	1
  2224  0071                     ??_SYSTEM_Initialize:	
  2225  0071                     servoRotate90@i:	
  2226                           ; 1 bytes @ 0x1
  2227                           
  2228  0071                     servoRotate180@i:	
  2229                           ; 2 bytes @ 0x1
  2230                           
  2231                           
  2232                           ; 2 bytes @ 0x1
  2233  0071                     	ds	1
  2234  0072                     ??_ADC_conversion_results:	
  2235  0072                     ADC_conversion_results@result:	
  2236                           ; 1 bytes @ 0x2
  2237                           
  2238                           
  2239                           ; 2 bytes @ 0x2
  2240  0072                     	ds	2
  2241  0074                     ??_main:	
  2242  0074                     main@results:	
  2243                           ; 1 bytes @ 0x4
  2244                           
  2245                           
  2246                           ; 2 bytes @ 0x4
  2247  0074                     	ds	2
  2248  0076                     main@count:	
  2249                           
  2250                           ; 2 bytes @ 0x6
  2251  0076                     	ds	2
  2252  0078                     main@servo_direction_clockwise:	
  2253                           
  2254                           ; 1 bytes @ 0x8
  2255  0078                     	ds	1
  2256                           
  2257                           	psect	maintext
  2258  07B7                     __pmaintext:	
  2259 ;;
  2260 ;;Main: autosize = 0, tempsize = 0, incstack = 0, save=0
  2261 ;;
  2262 ;; *************** function _main *****************
  2263 ;; Defined at:
  2264 ;;		line 98 in file "main.c"
  2265 ;; Parameters:    Size  Location     Type
  2266 ;;		None
  2267 ;; Auto vars:     Size  Location     Type
  2268 ;;  count           2    6[COMMON] unsigned int 
  2269 ;;  results         2    4[COMMON] unsigned int 
  2270 ;;  servo_direct    1    8[COMMON] unsigned char 
  2271 ;; Return value:  Size  Location     Type
  2272 ;;                  1    wreg      void 
  2273 ;; Registers used:
  2274 ;;		wreg, status,2, status,0, pclath, cstack
  2275 ;; Tracked objects:
  2276 ;;		On entry : B3F/0
  2277 ;;		On exit  : 0/0
  2278 ;;		Unchanged: 0/0
  2279 ;; Data sizes:     COMMON   BANK0   BANK1   BANK2   BANK3   BANK4   BANK5   BANK6   BANK7   BANK8   BANK9  BANK10  BANK1
      +1  BANK12  BANK13  BANK14  BANK15  BANK16  BANK17  BANK18  BANK19  BANK20  BANK21  BANK22  BANK23  BANK24  BANK25  BANK2
      +6  BANK27  BANK28  BANK29  BANK30  BANK31  BANK32  BANK33  BANK34  BANK35  BANK36  BANK37  BANK38  BANK39  BANK40  BANK4
      +1  BANK42  BANK43  BANK44  BANK45  BANK46  BANK47  BANK48  BANK49  BANK50
  2280 ;;      Params:         0       0       0       0       0       0       0       0       0       0       0       0       
      +0       0       0       0       0       0       0       0       0       0       0       0       0       0       0       
      +0       0       0       0       0       0       0       0       0       0       0       0       0       0       0       
      +0       0       0       0       0       0       0       0       0       0
  2281 ;;      Locals:         5       0       0       0       0       0       0       0       0       0       0       0       
      +0       0       0       0       0       0       0       0       0       0       0       0       0       0       0       
      +0       0       0       0       0       0       0       0       0       0       0       0       0       0       0       
      +0       0       0       0       0       0       0       0       0       0
  2282 ;;      Temps:          0       0       0       0       0       0       0       0       0       0       0       0       
      +0       0       0       0       0       0       0       0       0       0       0       0       0       0       0       
      +0       0       0       0       0       0       0       0       0       0       0       0       0       0       0       
      +0       0       0       0       0       0       0       0       0       0
  2283 ;;      Totals:         5       0       0       0       0       0       0       0       0       0       0       0       
      +0       0       0       0       0       0       0       0       0       0       0       0       0       0       0       
      +0       0       0       0       0       0       0       0       0       0       0       0       0       0       0       
      +0       0       0       0       0       0       0       0       0       0
  2284 ;;Total ram usage:        5 bytes
  2285 ;; Hardware stack levels required when called:    2
  2286 ;; This function calls:
  2287 ;;		_ADC_Init
  2288 ;;		_ADC_conversion_results
  2289 ;;		_SYSTEM_Initialize
  2290 ;;		_servoRotate180
  2291 ;;		_servoRotate90
  2292 ;; This function is called by:
  2293 ;;		Startup code after reset
  2294 ;; This function uses a non-reentrant model
  2295 ;;
  2296                           
  2297                           
  2298                           ;psect for function _main
  2299  07B7                     _main:	
  2300                           
  2301                           ;main.c: 101: SYSTEM_Initialize();
  2302                           
  2303                           ;incstack = 0
  2304                           ; Regs used in _main: [wreg+status,2+status,0+pclath+cstack]
  2305  07B7  3187  2700  3187   	fcall	_SYSTEM_Initialize
  2306                           
  2307                           ;main.c: 102: ADC_Init();
  2308  07BA  3187  272D  3187   	fcall	_ADC_Init
  2309                           
  2310                           ;main.c: 103: TRISA &= !0x01;
  2311  07BD  0140               	movlb	0	; select bank0
  2312  07BE  0191               	clrf	17	;volatile
  2313                           
  2314                           ;main.c: 104: TRISB = 00;
  2315  07BF  0192               	clrf	18	;volatile
  2316                           
  2317                           ;main.c: 105: TRISA = 0;
  2318  07C0  0191               	clrf	17	;volatile
  2319                           
  2320                           ;main.c: 107: unsigned results;
  2321                           ;main.c: 108: unsigned count = 0;
  2322  07C1  01F6               	clrf	main@count
  2323  07C2  01F7               	clrf	main@count+1
  2324  07C3                     L1:	
  2325                           
  2326                           ;main.c: 109: bool servo_direction_clockwise = 1;
  2327  07C3  01F8               	clrf	main@servo_direction_clockwise
  2328  07C4  0AF8               	incf	main@servo_direction_clockwise,f
  2329  07C5                     l846:	
  2330                           ;main.c: 110: while (1)
  2331                           
  2332                           
  2333                           ;main.c: 111: {
  2334                           ;main.c: 113: results = ADC_conversion_results();
  2335  07C5  3187  271E  3187   	fcall	_ADC_conversion_results
  2336  07C8  0871               	movf	?_ADC_conversion_results+1,w
  2337  07C9  00F5               	movwf	main@results+1
  2338  07CA  0870               	movf	?_ADC_conversion_results,w
  2339  07CB  00F4               	movwf	main@results
  2340                           
  2341                           ;main.c: 117: if(results > 0x0390)
  2342  07CC  3003               	movlw	3
  2343  07CD  0275               	subwf	main@results+1,w
  2344  07CE  3091               	movlw	145
  2345  07CF  1903               	skipnz
  2346  07D0  0274               	subwf	main@results,w
  2347  07D1  1C03               	skipc
  2348  07D2  2FD6               	goto	l852
  2349                           
  2350                           ;main.c: 118: PORTA |= 0x01;
  2351  07D3  0140               	movlb	0	; select bank0
  2352  07D4  140C               	bsf	12,0	;volatile
  2353  07D5  2FD8               	goto	l854
  2354  07D6                     l852:	
  2355                           
  2356                           ;main.c: 119: else
  2357                           ;main.c: 120: PORTA &= !0x01;
  2358  07D6  0140               	movlb	0	; select bank0
  2359  07D7  018C               	clrf	12	;volatile
  2360  07D8                     l854:	
  2361                           
  2362                           ;main.c: 122: count++;
  2363  07D8  3001               	movlw	1
  2364  07D9  07F6               	addwf	main@count,f
  2365  07DA  3000               	movlw	0
  2366  07DB  3DF7               	addwfc	main@count+1,f
  2367                           
  2368                           ;main.c: 124: if( count > 5000 && servo_direction_clockwise)
  2369  07DC  3013               	movlw	19
  2370  07DD  0277               	subwf	main@count+1,w
  2371  07DE  3089               	movlw	137
  2372  07DF  1903               	skipnz
  2373  07E0  0276               	subwf	main@count,w
  2374  07E1  1C03               	skipc
  2375  07E2  2FED               	goto	l866
  2376  07E3  0878               	movf	main@servo_direction_clockwise,w
  2377  07E4  1903               	btfsc	3,2
  2378  07E5  2FED               	goto	l866
  2379                           
  2380                           ;main.c: 125: {
  2381                           ;main.c: 126: count = 0;
  2382  07E6  01F6               	clrf	main@count
  2383  07E7  01F7               	clrf	main@count+1
  2384                           
  2385                           ;main.c: 127: servoRotate180();
  2386  07E8  3187  2746  3187   	fcall	_servoRotate180
  2387                           
  2388                           ;main.c: 128: servo_direction_clockwise = 0;
  2389  07EB  01F8               	clrf	main@servo_direction_clockwise
  2390                           
  2391                           ;main.c: 129: }
  2392  07EC  2FC5               	goto	l846
  2393  07ED                     l866:	
  2394                           
  2395                           ;main.c: 130: else if( count > 5000 && !servo_direction_clockwise)
  2396  07ED  3013               	movlw	19
  2397  07EE  0277               	subwf	main@count+1,w
  2398  07EF  3089               	movlw	137
  2399  07F0  1903               	skipnz
  2400  07F1  0276               	subwf	main@count,w
  2401  07F2  1C03               	skipc
  2402  07F3  2FC5               	goto	l846
  2403  07F4  0878               	movf	main@servo_direction_clockwise,w
  2404  07F5  1D03               	btfss	3,2
  2405  07F6  2FC5               	goto	l846
  2406                           
  2407                           ;main.c: 131: {
  2408                           ;main.c: 132: count = 0;
  2409  07F7  01F6               	clrf	main@count
  2410  07F8  01F7               	clrf	main@count+1
  2411                           
  2412                           ;main.c: 133: servoRotate90();
  2413  07F9  3187  2765  3187   	fcall	_servoRotate90
  2414  07FC  2FC3               	goto	L1
  2415  07FD                     __end_of_main:	
  2416                           ;main.c: 134: servo_direction_clockwise = 1;
  2417                           
  2418                           
  2419                           	psect	text1
  2420  0765                     __ptext1:	
  2421 ;; *************** function _servoRotate90 *****************
  2422 ;; Defined at:
  2423 ;;		line 24 in file "main.c"
  2424 ;; Parameters:    Size  Location     Type
  2425 ;;		None
  2426 ;; Auto vars:     Size  Location     Type
  2427 ;;  i               2    1[COMMON] unsigned int 
  2428 ;; Return value:  Size  Location     Type
  2429 ;;                  1    wreg      void 
  2430 ;; Registers used:
  2431 ;;		wreg, status,2
  2432 ;; Tracked objects:
  2433 ;;		On entry : 0/0
  2434 ;;		On exit  : 0/0
  2435 ;;		Unchanged: 0/0
  2436 ;; Data sizes:     COMMON   BANK0   BANK1   BANK2   BANK3   BANK4   BANK5   BANK6   BANK7   BANK8   BANK9  BANK10  BANK1
      +1  BANK12  BANK13  BANK14  BANK15  BANK16  BANK17  BANK18  BANK19  BANK20  BANK21  BANK22  BANK23  BANK24  BANK25  BANK2
      +6  BANK27  BANK28  BANK29  BANK30  BANK31  BANK32  BANK33  BANK34  BANK35  BANK36  BANK37  BANK38  BANK39  BANK40  BANK4
      +1  BANK42  BANK43  BANK44  BANK45  BANK46  BANK47  BANK48  BANK49  BANK50
  2437 ;;      Params:         0       0       0       0       0       0       0       0       0       0       0       0       
      +0       0       0       0       0       0       0       0       0       0       0       0       0       0       0       
      +0       0       0       0       0       0       0       0       0       0       0       0       0       0       0       
      +0       0       0       0       0       0       0       0       0       0
  2438 ;;      Locals:         2       0       0       0       0       0       0       0       0       0       0       0       
      +0       0       0       0       0       0       0       0       0       0       0       0       0       0       0       
      +0       0       0       0       0       0       0       0       0       0       0       0       0       0       0       
      +0       0       0       0       0       0       0       0       0       0
  2439 ;;      Temps:          1       0       0       0       0       0       0       0       0       0       0       0       
      +0       0       0       0       0       0       0       0       0       0       0       0       0       0       0       
      +0       0       0       0       0       0       0       0       0       0       0       0       0       0       0       
      +0       0       0       0       0       0       0       0       0       0
  2440 ;;      Totals:         3       0       0       0       0       0       0       0       0       0       0       0       
      +0       0       0       0       0       0       0       0       0       0       0       0       0       0       0       
      +0       0       0       0       0       0       0       0       0       0       0       0       0       0       0       
      +0       0       0       0       0       0       0       0       0       0
  2441 ;;Total ram usage:        3 bytes
  2442 ;; Hardware stack levels used:    1
  2443 ;; This function calls:
  2444 ;;		Nothing
  2445 ;; This function is called by:
  2446 ;;		_main
  2447 ;; This function uses a non-reentrant model
  2448 ;;
  2449                           
  2450                           
  2451                           ;psect for function _servoRotate90
  2452  0765                     _servoRotate90:	
  2453                           
  2454                           ;main.c: 26: unsigned int i;
  2455                           ;main.c: 27: for(i=0;i<50;i++)
  2456                           
  2457                           ;incstack = 0
  2458                           ; Regs used in _servoRotate90: [wreg+status,2]
  2459  0765  01F1               	clrf	servoRotate90@i
  2460  0766  01F2               	clrf	servoRotate90@i+1
  2461  0767                     L2:	
  2462  0767  3000               	movlw	0
  2463  0768  0272               	subwf	servoRotate90@i+1,w
  2464  0769  3032               	movlw	50
  2465  076A  1903               	skipnz
  2466  076B  0271               	subwf	servoRotate90@i,w
  2467  076C  1803               	btfsc	3,0
  2468  076D  0008               	return
  2469                           
  2470                           ;main.c: 28: {
  2471                           ;main.c: 29: PORTB = 1;
  2472  076E  3001               	movlw	1
  2473  076F  0140               	movlb	0	; select bank0
  2474  0770  008D               	movwf	13	;volatile
  2475                           
  2476                           ;main.c: 30: _delay((unsigned long)((4)*(1000000/4000.0)));
  2477  0771  30C8               	movlw	200
  2478  0772                     u247:	
  2479  0772  3200               	nop2
  2480  0773  0B89               	decfsz	9,f
  2481  0774  2F72               	goto	u247
  2482                           
  2483                           ;main.c: 31: PORTB = 0;
  2484  0775  0140               	movlb	0	; select bank0
  2485  0776  018D               	clrf	13	;volatile
  2486                           
  2487                           ;main.c: 32: _delay((unsigned long)((16)*(1000000/4000.0)));
  2488  0777  3006               	movlw	6
  2489  0778  00F0               	movwf	??_servoRotate90
  2490  0779  3030               	movlw	48
  2491  077A                     u257:	
  2492  077A  0B89               	decfsz	9,f
  2493  077B  2F7A               	goto	u257
  2494  077C  0BF0               	decfsz	??_servoRotate90,f
  2495  077D  2F7A               	goto	u257
  2496  077E  3200               	nop2
  2497  077F  3001               	movlw	1
  2498  0780  07F1               	addwf	servoRotate90@i,f
  2499  0781  3000               	movlw	0
  2500  0782  3DF2               	addwfc	servoRotate90@i+1,f
  2501  0783  2F67               	goto	L2
  2502  0784                     __end_of_servoRotate90:	
  2503                           
  2504                           	psect	text2
  2505  0746                     __ptext2:	
  2506 ;; *************** function _servoRotate180 *****************
  2507 ;; Defined at:
  2508 ;;		line 36 in file "main.c"
  2509 ;; Parameters:    Size  Location     Type
  2510 ;;		None
  2511 ;; Auto vars:     Size  Location     Type
  2512 ;;  i               2    1[COMMON] unsigned int 
  2513 ;; Return value:  Size  Location     Type
  2514 ;;                  1    wreg      void 
  2515 ;; Registers used:
  2516 ;;		wreg, status,2
  2517 ;; Tracked objects:
  2518 ;;		On entry : 0/0
  2519 ;;		On exit  : 0/0
  2520 ;;		Unchanged: 0/0
  2521 ;; Data sizes:     COMMON   BANK0   BANK1   BANK2   BANK3   BANK4   BANK5   BANK6   BANK7   BANK8   BANK9  BANK10  BANK1
      +1  BANK12  BANK13  BANK14  BANK15  BANK16  BANK17  BANK18  BANK19  BANK20  BANK21  BANK22  BANK23  BANK24  BANK25  BANK2
      +6  BANK27  BANK28  BANK29  BANK30  BANK31  BANK32  BANK33  BANK34  BANK35  BANK36  BANK37  BANK38  BANK39  BANK40  BANK4
      +1  BANK42  BANK43  BANK44  BANK45  BANK46  BANK47  BANK48  BANK49  BANK50
  2522 ;;      Params:         0       0       0       0       0       0       0       0       0       0       0       0       
      +0       0       0       0       0       0       0       0       0       0       0       0       0       0       0       
      +0       0       0       0       0       0       0       0       0       0       0       0       0       0       0       
      +0       0       0       0       0       0       0       0       0       0
  2523 ;;      Locals:         2       0       0       0       0       0       0       0       0       0       0       0       
      +0       0       0       0       0       0       0       0       0       0       0       0       0       0       0       
      +0       0       0       0       0       0       0       0       0       0       0       0       0       0       0       
      +0       0       0       0       0       0       0       0       0       0
  2524 ;;      Temps:          1       0       0       0       0       0       0       0       0       0       0       0       
      +0       0       0       0       0       0       0       0       0       0       0       0       0       0       0       
      +0       0       0       0       0       0       0       0       0       0       0       0       0       0       0       
      +0       0       0       0       0       0       0       0       0       0
  2525 ;;      Totals:         3       0       0       0       0       0       0       0       0       0       0       0       
      +0       0       0       0       0       0       0       0       0       0       0       0       0       0       0       
      +0       0       0       0       0       0       0       0       0       0       0       0       0       0       0       
      +0       0       0       0       0       0       0       0       0       0
  2526 ;;Total ram usage:        3 bytes
  2527 ;; Hardware stack levels used:    1
  2528 ;; This function calls:
  2529 ;;		Nothing
  2530 ;; This function is called by:
  2531 ;;		_main
  2532 ;; This function uses a non-reentrant model
  2533 ;;
  2534                           
  2535                           
  2536                           ;psect for function _servoRotate180
  2537  0746                     _servoRotate180:	
  2538                           
  2539                           ;main.c: 38: unsigned int i;
  2540                           ;main.c: 39: for(i=0;i<50;i++)
  2541                           
  2542                           ;incstack = 0
  2543                           ; Regs used in _servoRotate180: [wreg+status,2]
  2544  0746  01F1               	clrf	servoRotate180@i
  2545  0747  01F2               	clrf	servoRotate180@i+1
  2546  0748                     L3:	
  2547  0748  3000               	movlw	0
  2548  0749  0272               	subwf	servoRotate180@i+1,w
  2549  074A  3032               	movlw	50
  2550  074B  1903               	skipnz
  2551  074C  0271               	subwf	servoRotate180@i,w
  2552  074D  1803               	btfsc	3,0
  2553  074E  0008               	return
  2554                           
  2555                           ;main.c: 40: {
  2556                           ;main.c: 41: PORTB = 1;
  2557  074F  3001               	movlw	1
  2558  0750  0140               	movlb	0	; select bank0
  2559  0751  008D               	movwf	13	;volatile
  2560                           
  2561                           ;main.c: 42: _delay((unsigned long)((0.5)*(1000000/4000.0)));
  2562  0752  3029               	movlw	41
  2563  0753                     u267:	
  2564  0753  0B89               	decfsz	9,f
  2565  0754  2F53               	goto	u267
  2566  0755  3200               	nop2
  2567                           
  2568                           ;main.c: 43: PORTB = 0;
  2569  0756  0140               	movlb	0	; select bank0
  2570  0757  018D               	clrf	13	;volatile
  2571                           
  2572                           ;main.c: 44: _delay((unsigned long)((19.5)*(1000000/4000.0)));
  2573  0758  3007               	movlw	7
  2574  0759  00F0               	movwf	??_servoRotate180
  2575  075A  3053               	movlw	83
  2576  075B                     u277:	
  2577  075B  0B89               	decfsz	9,f
  2578  075C  2F5B               	goto	u277
  2579  075D  0BF0               	decfsz	??_servoRotate180,f
  2580  075E  2F5B               	goto	u277
  2581  075F  3200               	nop2
  2582  0760  3001               	movlw	1
  2583  0761  07F1               	addwf	servoRotate180@i,f
  2584  0762  3000               	movlw	0
  2585  0763  3DF2               	addwfc	servoRotate180@i+1,f
  2586  0764  2F48               	goto	L3
  2587  0765                     __end_of_servoRotate180:	
  2588                           
  2589                           	psect	text3
  2590  0700                     __ptext3:	
  2591 ;; *************** function _SYSTEM_Initialize *****************
  2592 ;; Defined at:
  2593 ;;		line 82 in file "mcc_generated_files/mcc.c"
  2594 ;; Parameters:    Size  Location     Type
  2595 ;;		None
  2596 ;; Auto vars:     Size  Location     Type
  2597 ;;		None
  2598 ;; Return value:  Size  Location     Type
  2599 ;;                  1    wreg      void 
  2600 ;; Registers used:
  2601 ;;		wreg, status,2, status,0, pclath, cstack
  2602 ;; Tracked objects:
  2603 ;;		On entry : 0/0
  2604 ;;		On exit  : 0/0
  2605 ;;		Unchanged: 0/0
  2606 ;; Data sizes:     COMMON   BANK0   BANK1   BANK2   BANK3   BANK4   BANK5   BANK6   BANK7   BANK8   BANK9  BANK10  BANK1
      +1  BANK12  BANK13  BANK14  BANK15  BANK16  BANK17  BANK18  BANK19  BANK20  BANK21  BANK22  BANK23  BANK24  BANK25  BANK2
      +6  BANK27  BANK28  BANK29  BANK30  BANK31  BANK32  BANK33  BANK34  BANK35  BANK36  BANK37  BANK38  BANK39  BANK40  BANK4
      +1  BANK42  BANK43  BANK44  BANK45  BANK46  BANK47  BANK48  BANK49  BANK50
  2607 ;;      Params:         0       0       0       0       0       0       0       0       0       0       0       0       
      +0       0       0       0       0       0       0       0       0       0       0       0       0       0       0       
      +0       0       0       0       0       0       0       0       0       0       0       0       0       0       0       
      +0       0       0       0       0       0       0       0       0       0
  2608 ;;      Locals:         0       0       0       0       0       0       0       0       0       0       0       0       
      +0       0       0       0       0       0       0       0       0       0       0       0       0       0       0       
      +0       0       0       0       0       0       0       0       0       0       0       0       0       0       0       
      +0       0       0       0       0       0       0       0       0       0
  2609 ;;      Temps:          0       0       0       0       0       0       0       0       0       0       0       0       
      +0       0       0       0       0       0       0       0       0       0       0       0       0       0       0       
      +0       0       0       0       0       0       0       0       0       0       0       0       0       0       0       
      +0       0       0       0       0       0       0       0       0       0
  2610 ;;      Totals:         0       0       0       0       0       0       0       0       0       0       0       0       
      +0       0       0       0       0       0       0       0       0       0       0       0       0       0       0       
      +0       0       0       0       0       0       0       0       0       0       0       0       0       0       0       
      +0       0       0       0       0       0       0       0       0       0
  2611 ;;Total ram usage:        0 bytes
  2612 ;; Hardware stack levels used:    1
  2613 ;; Hardware stack levels required when called:    1
  2614 ;; This function calls:
  2615 ;;		_EUSART_Initialize
  2616 ;;		_OSCILLATOR_Initialize
  2617 ;;		_PIN_MANAGER_Initialize
  2618 ;; This function is called by:
  2619 ;;		_main
  2620 ;; This function uses a non-reentrant model
  2621 ;;
  2622                           
  2623                           
  2624                           ;psect for function _SYSTEM_Initialize
  2625  0700                     _SYSTEM_Initialize:	
  2626                           
  2627                           ;mcc.c: 85: PIN_MANAGER_Initialize();
  2628                           
  2629                           ;incstack = 0
  2630                           ; Regs used in _SYSTEM_Initialize: [wreg+status,2+status,0+pclath+cstack]
  2631  0700  3187  2784  3187   	fcall	_PIN_MANAGER_Initialize
  2632                           
  2633                           ;mcc.c: 86: OSCILLATOR_Initialize();
  2634  0703  3187  2709  3187   	fcall	_OSCILLATOR_Initialize
  2635                           
  2636                           ;mcc.c: 87: EUSART_Initialize();
  2637  0706  3187  2713         	fcall	_EUSART_Initialize
  2638  0708  0008               	return
  2639  0709                     __end_of_SYSTEM_Initialize:	
  2640                           
  2641                           	psect	text4
  2642  0784                     __ptext4:	
  2643 ;; *************** function _PIN_MANAGER_Initialize *****************
  2644 ;; Defined at:
  2645 ;;		line 50 in file "mcc_generated_files/pin_manager.c"
  2646 ;; Parameters:    Size  Location     Type
  2647 ;;		None
  2648 ;; Auto vars:     Size  Location     Type
  2649 ;;  state           1    0[COMMON] unsigned char 
  2650 ;; Return value:  Size  Location     Type
  2651 ;;                  1    wreg      void 
  2652 ;; Registers used:
  2653 ;;		wreg, status,2
  2654 ;; Tracked objects:
  2655 ;;		On entry : 0/0
  2656 ;;		On exit  : 0/0
  2657 ;;		Unchanged: 0/0
  2658 ;; Data sizes:     COMMON   BANK0   BANK1   BANK2   BANK3   BANK4   BANK5   BANK6   BANK7   BANK8   BANK9  BANK10  BANK1
      +1  BANK12  BANK13  BANK14  BANK15  BANK16  BANK17  BANK18  BANK19  BANK20  BANK21  BANK22  BANK23  BANK24  BANK25  BANK2
      +6  BANK27  BANK28  BANK29  BANK30  BANK31  BANK32  BANK33  BANK34  BANK35  BANK36  BANK37  BANK38  BANK39  BANK40  BANK4
      +1  BANK42  BANK43  BANK44  BANK45  BANK46  BANK47  BANK48  BANK49  BANK50
  2659 ;;      Params:         0       0       0       0       0       0       0       0       0       0       0       0       
      +0       0       0       0       0       0       0       0       0       0       0       0       0       0       0       
      +0       0       0       0       0       0       0       0       0       0       0       0       0       0       0       
      +0       0       0       0       0       0       0       0       0       0
  2660 ;;      Locals:         1       0       0       0       0       0       0       0       0       0       0       0       
      +0       0       0       0       0       0       0       0       0       0       0       0       0       0       0       
      +0       0       0       0       0       0       0       0       0       0       0       0       0       0       0       
      +0       0       0       0       0       0       0       0       0       0
  2661 ;;      Temps:          0       0       0       0       0       0       0       0       0       0       0       0       
      +0       0       0       0       0       0       0       0       0       0       0       0       0       0       0       
      +0       0       0       0       0       0       0       0       0       0       0       0       0       0       0       
      +0       0       0       0       0       0       0       0       0       0
  2662 ;;      Totals:         1       0       0       0       0       0       0       0       0       0       0       0       
      +0       0       0       0       0       0       0       0       0       0       0       0       0       0       0       
      +0       0       0       0       0       0       0       0       0       0       0       0       0       0       0       
      +0       0       0       0       0       0       0       0       0       0
  2663 ;;Total ram usage:        1 bytes
  2664 ;; Hardware stack levels used:    1
  2665 ;; This function calls:
  2666 ;;		Nothing
  2667 ;; This function is called by:
  2668 ;;		_SYSTEM_Initialize
  2669 ;; This function uses a non-reentrant model
  2670 ;;
  2671                           
  2672                           
  2673                           ;psect for function _PIN_MANAGER_Initialize
  2674  0784                     _PIN_MANAGER_Initialize:	
  2675                           
  2676                           ;pin_manager.c: 52: LATB = 0x0;
  2677                           
  2678                           ;incstack = 0
  2679                           ; Regs used in _PIN_MANAGER_Initialize: [wreg+status,2]
  2680  0784  0140               	movlb	0	; select bank0
  2681  0785  0197               	clrf	23	;volatile
  2682                           
  2683                           ;pin_manager.c: 53: LATA = 0x0;
  2684  0786  0196               	clrf	22	;volatile
  2685                           
  2686                           ;pin_manager.c: 54: LATC = 0x0;
  2687  0787  0198               	clrf	24	;volatile
  2688                           
  2689                           ;pin_manager.c: 55: WPUA = 0x0;
  2690  0788  017E               	movlb	62	; select bank62
  2691  0789  01B9               	clrf	57	;volatile
  2692                           
  2693                           ;pin_manager.c: 56: WPUB = 0x0;
  2694  078A  01C4               	clrf	68	;volatile
  2695                           
  2696                           ;pin_manager.c: 57: WPUC = 0x0;
  2697  078B  01CF               	clrf	79	;volatile
  2698                           
  2699                           ;pin_manager.c: 58: ANSELA = 0xFF;
  2700  078C  30FF               	movlw	255
  2701  078D  00B8               	movwf	56	;volatile
  2702                           
  2703                           ;pin_manager.c: 59: ANSELB = 0xFF;
  2704  078E  30FF               	movlw	255
  2705  078F  00C3               	movwf	67	;volatile
  2706                           
  2707                           ;pin_manager.c: 60: ANSELC = 0x7F;
  2708  0790  307F               	movlw	127
  2709  0791  00CE               	movwf	78	;volatile
  2710                           
  2711                           ;pin_manager.c: 61: TRISB = 0xFF;
  2712  0792  30FF               	movlw	255
  2713  0793  0140               	movlb	0	; select bank0
  2714  0794  0092               	movwf	18	;volatile
  2715                           
  2716                           ;pin_manager.c: 62: TRISC = 0xBF;
  2717  0795  30BF               	movlw	191
  2718  0796  0093               	movwf	19	;volatile
  2719                           
  2720                           ;pin_manager.c: 63: TRISA = 0xFF;
  2721  0797  30FF               	movlw	255
  2722  0798  0091               	movwf	17	;volatile
  2723                           
  2724                           ;pin_manager.c: 68: bool state = GIE;
  2725  0799  3000               	movlw	0
  2726  079A  1B8B               	btfsc	11,7	;volatile
  2727  079B  3001               	movlw	1
  2728  079C  00F0               	movwf	PIN_MANAGER_Initialize@state
  2729                           
  2730                           ;pin_manager.c: 69: GIE = 0;
  2731  079D  138B               	bcf	11,7	;volatile
  2732                           
  2733                           ;pin_manager.c: 70: PPSLOCK = 0x55;
  2734  079E  3055               	movlw	85
  2735  079F  017D               	movlb	61	; select bank61
  2736  07A0  008F               	movwf	15	;volatile
  2737                           
  2738                           ;pin_manager.c: 71: PPSLOCK = 0xAA;
  2739  07A1  30AA               	movlw	170
  2740  07A2  008F               	movwf	15	;volatile
  2741                           
  2742                           ;pin_manager.c: 72: PPSLOCKbits.PPSLOCKED = 0x00;
  2743  07A3  100F               	bcf	15,0	;volatile
  2744                           
  2745                           ;pin_manager.c: 74: RXPPS = 0x17;
  2746  07A4  3017               	movlw	23
  2747  07A5  00CB               	movwf	75	;volatile
  2748                           
  2749                           ;pin_manager.c: 75: RC6PPS = 0x10;
  2750  07A6  3010               	movlw	16
  2751  07A7  017E               	movlb	62	; select bank62
  2752  07A8  00A6               	movwf	38	;volatile
  2753                           
  2754                           ;pin_manager.c: 77: RC3PPS = 0x09;
  2755  07A9  3009               	movlw	9
  2756  07AA  00A3               	movwf	35	;volatile
  2757                           
  2758                           ;pin_manager.c: 79: PPSLOCK = 0x55;
  2759  07AB  3055               	movlw	85
  2760  07AC  017D               	movlb	61	; select bank61
  2761  07AD  008F               	movwf	15	;volatile
  2762                           
  2763                           ;pin_manager.c: 80: PPSLOCK = 0xAA;
  2764  07AE  30AA               	movlw	170
  2765  07AF  008F               	movwf	15	;volatile
  2766                           
  2767                           ;pin_manager.c: 81: PPSLOCKbits.PPSLOCKED = 0x01;
  2768  07B0  140F               	bsf	15,0	;volatile
  2769                           
  2770                           ;pin_manager.c: 83: GIE = state;
  2771  07B1  1C70               	btfss	PIN_MANAGER_Initialize@state,0
  2772  07B2  2FB5               	goto	u10
  2773  07B3  178B               	bsf	11,7	;volatile
  2774  07B4  0008               	return
  2775  07B5                     u10:	
  2776  07B5  138B               	bcf	11,7	;volatile
  2777  07B6  0008               	return
  2778  07B7                     __end_of_PIN_MANAGER_Initialize:	
  2779                           
  2780                           	psect	text5
  2781  0709                     __ptext5:	
  2782 ;; *************** function _OSCILLATOR_Initialize *****************
  2783 ;; Defined at:
  2784 ;;		line 90 in file "mcc_generated_files/mcc.c"
  2785 ;; Parameters:    Size  Location     Type
  2786 ;;		None
  2787 ;; Auto vars:     Size  Location     Type
  2788 ;;		None
  2789 ;; Return value:  Size  Location     Type
  2790 ;;                  1    wreg      void 
  2791 ;; Registers used:
  2792 ;;		wreg, status,2
  2793 ;; Tracked objects:
  2794 ;;		On entry : 0/0
  2795 ;;		On exit  : 0/0
  2796 ;;		Unchanged: 0/0
  2797 ;; Data sizes:     COMMON   BANK0   BANK1   BANK2   BANK3   BANK4   BANK5   BANK6   BANK7   BANK8   BANK9  BANK10  BANK1
      +1  BANK12  BANK13  BANK14  BANK15  BANK16  BANK17  BANK18  BANK19  BANK20  BANK21  BANK22  BANK23  BANK24  BANK25  BANK2
      +6  BANK27  BANK28  BANK29  BANK30  BANK31  BANK32  BANK33  BANK34  BANK35  BANK36  BANK37  BANK38  BANK39  BANK40  BANK4
      +1  BANK42  BANK43  BANK44  BANK45  BANK46  BANK47  BANK48  BANK49  BANK50
  2798 ;;      Params:         0       0       0       0       0       0       0       0       0       0       0       0       
      +0       0       0       0       0       0       0       0       0       0       0       0       0       0       0       
      +0       0       0       0       0       0       0       0       0       0       0       0       0       0       0       
      +0       0       0       0       0       0       0       0       0       0
  2799 ;;      Locals:         0       0       0       0       0       0       0       0       0       0       0       0       
      +0       0       0       0       0       0       0       0       0       0       0       0       0       0       0       
      +0       0       0       0       0       0       0       0       0       0       0       0       0       0       0       
      +0       0       0       0       0       0       0       0       0       0
  2800 ;;      Temps:          0       0       0       0       0       0       0       0       0       0       0       0       
      +0       0       0       0       0       0       0       0       0       0       0       0       0       0       0       
      +0       0       0       0       0       0       0       0       0       0       0       0       0       0       0       
      +0       0       0       0       0       0       0       0       0       0
  2801 ;;      Totals:         0       0       0       0       0       0       0       0       0       0       0       0       
      +0       0       0       0       0       0       0       0       0       0       0       0       0       0       0       
      +0       0       0       0       0       0       0       0       0       0       0       0       0       0       0       
      +0       0       0       0       0       0       0       0       0       0
  2802 ;;Total ram usage:        0 bytes
  2803 ;; Hardware stack levels used:    1
  2804 ;; This function calls:
  2805 ;;		Nothing
  2806 ;; This function is called by:
  2807 ;;		_SYSTEM_Initialize
  2808 ;; This function uses a non-reentrant model
  2809 ;;
  2810                           
  2811                           
  2812                           ;psect for function _OSCILLATOR_Initialize
  2813  0709                     _OSCILLATOR_Initialize:	
  2814                           
  2815                           ;mcc.c: 93: OSCCON1 = 0x62;
  2816                           
  2817                           ;incstack = 0
  2818                           ; Regs used in _OSCILLATOR_Initialize: [wreg+status,2]
  2819  0709  3062               	movlw	98
  2820  070A  0151               	movlb	17	; select bank17
  2821  070B  008D               	movwf	13	;volatile
  2822                           
  2823                           ;mcc.c: 95: OSCCON3 = 0x00;
  2824  070C  018F               	clrf	15	;volatile
  2825                           
  2826                           ;mcc.c: 97: OSCEN = 0x00;
  2827  070D  0191               	clrf	17	;volatile
  2828                           
  2829                           ;mcc.c: 99: OSCFRQ = 0x02;
  2830  070E  3002               	movlw	2
  2831  070F  0093               	movwf	19	;volatile
  2832                           
  2833                           ;mcc.c: 101: OSCSTAT = 0x00;
  2834  0710  0190               	clrf	16	;volatile
  2835                           
  2836                           ;mcc.c: 103: OSCTUNE = 0x00;
  2837  0711  0192               	clrf	18	;volatile
  2838  0712  0008               	return
  2839  0713                     __end_of_OSCILLATOR_Initialize:	
  2840                           
  2841                           	psect	text6
  2842  0713                     __ptext6:	
  2843 ;; *************** function _EUSART_Initialize *****************
  2844 ;; Defined at:
  2845 ;;		line 55 in file "mcc_generated_files/eusart.c"
  2846 ;; Parameters:    Size  Location     Type
  2847 ;;		None
  2848 ;; Auto vars:     Size  Location     Type
  2849 ;;		None
  2850 ;; Return value:  Size  Location     Type
  2851 ;;                  1    wreg      void 
  2852 ;; Registers used:
  2853 ;;		wreg, status,2
  2854 ;; Tracked objects:
  2855 ;;		On entry : 0/0
  2856 ;;		On exit  : 0/0
  2857 ;;		Unchanged: 0/0
  2858 ;; Data sizes:     COMMON   BANK0   BANK1   BANK2   BANK3   BANK4   BANK5   BANK6   BANK7   BANK8   BANK9  BANK10  BANK1
      +1  BANK12  BANK13  BANK14  BANK15  BANK16  BANK17  BANK18  BANK19  BANK20  BANK21  BANK22  BANK23  BANK24  BANK25  BANK2
      +6  BANK27  BANK28  BANK29  BANK30  BANK31  BANK32  BANK33  BANK34  BANK35  BANK36  BANK37  BANK38  BANK39  BANK40  BANK4
      +1  BANK42  BANK43  BANK44  BANK45  BANK46  BANK47  BANK48  BANK49  BANK50
  2859 ;;      Params:         0       0       0       0       0       0       0       0       0       0       0       0       
      +0       0       0       0       0       0       0       0       0       0       0       0       0       0       0       
      +0       0       0       0       0       0       0       0       0       0       0       0       0       0       0       
      +0       0       0       0       0       0       0       0       0       0
  2860 ;;      Locals:         0       0       0       0       0       0       0       0       0       0       0       0       
      +0       0       0       0       0       0       0       0       0       0       0       0       0       0       0       
      +0       0       0       0       0       0       0       0       0       0       0       0       0       0       0       
      +0       0       0       0       0       0       0       0       0       0
  2861 ;;      Temps:          0       0       0       0       0       0       0       0       0       0       0       0       
      +0       0       0       0       0       0       0       0       0       0       0       0       0       0       0       
      +0       0       0       0       0       0       0       0       0       0       0       0       0       0       0       
      +0       0       0       0       0       0       0       0       0       0
  2862 ;;      Totals:         0       0       0       0       0       0       0       0       0       0       0       0       
      +0       0       0       0       0       0       0       0       0       0       0       0       0       0       0       
      +0       0       0       0       0       0       0       0       0       0       0       0       0       0       0       
      +0       0       0       0       0       0       0       0       0       0
  2863 ;;Total ram usage:        0 bytes
  2864 ;; Hardware stack levels used:    1
  2865 ;; This function calls:
  2866 ;;		Nothing
  2867 ;; This function is called by:
  2868 ;;		_SYSTEM_Initialize
  2869 ;; This function uses a non-reentrant model
  2870 ;;
  2871                           
  2872                           
  2873                           ;psect for function _EUSART_Initialize
  2874  0713                     _EUSART_Initialize:	
  2875                           
  2876                           ;eusart.c: 60: BAUD1CON = 0x08;
  2877                           
  2878                           ;incstack = 0
  2879                           ; Regs used in _EUSART_Initialize: [wreg+status,2]
  2880  0713  3008               	movlw	8
  2881  0714  0142               	movlb	2	; select bank2
  2882  0715  009F               	movwf	31	;volatile
  2883                           
  2884                           ;eusart.c: 63: RC1STA = 0x90;
  2885  0716  3090               	movlw	144
  2886  0717  009D               	movwf	29	;volatile
  2887                           
  2888                           ;eusart.c: 66: TX1STA = 0x24;
  2889  0718  3024               	movlw	36
  2890  0719  009E               	movwf	30	;volatile
  2891                           
  2892                           ;eusart.c: 69: SP1BRGL = 0x19;
  2893  071A  3019               	movlw	25
  2894  071B  009B               	movwf	27	;volatile
  2895                           
  2896                           ;eusart.c: 72: SP1BRGH = 0x00;
  2897  071C  019C               	clrf	28	;volatile
  2898  071D  0008               	return
  2899  071E                     __end_of_EUSART_Initialize:	
  2900                           
  2901                           	psect	text7
  2902  071E                     __ptext7:	
  2903 ;; *************** function _ADC_conversion_results *****************
  2904 ;; Defined at:
  2905 ;;		line 83 in file "main.c"
  2906 ;; Parameters:    Size  Location     Type
  2907 ;;		None
  2908 ;; Auto vars:     Size  Location     Type
  2909 ;;  result          2    2[COMMON] unsigned int 
  2910 ;; Return value:  Size  Location     Type
  2911 ;;                  2    0[COMMON] unsigned int 
  2912 ;; Registers used:
  2913 ;;		wreg
  2914 ;; Tracked objects:
  2915 ;;		On entry : 0/0
  2916 ;;		On exit  : 0/0
  2917 ;;		Unchanged: 0/0
  2918 ;; Data sizes:     COMMON   BANK0   BANK1   BANK2   BANK3   BANK4   BANK5   BANK6   BANK7   BANK8   BANK9  BANK10  BANK1
      +1  BANK12  BANK13  BANK14  BANK15  BANK16  BANK17  BANK18  BANK19  BANK20  BANK21  BANK22  BANK23  BANK24  BANK25  BANK2
      +6  BANK27  BANK28  BANK29  BANK30  BANK31  BANK32  BANK33  BANK34  BANK35  BANK36  BANK37  BANK38  BANK39  BANK40  BANK4
      +1  BANK42  BANK43  BANK44  BANK45  BANK46  BANK47  BANK48  BANK49  BANK50
  2919 ;;      Params:         2       0       0       0       0       0       0       0       0       0       0       0       
      +0       0       0       0       0       0       0       0       0       0       0       0       0       0       0       
      +0       0       0       0       0       0       0       0       0       0       0       0       0       0       0       
      +0       0       0       0       0       0       0       0       0       0
  2920 ;;      Locals:         2       0       0       0       0       0       0       0       0       0       0       0       
      +0       0       0       0       0       0       0       0       0       0       0       0       0       0       0       
      +0       0       0       0       0       0       0       0       0       0       0       0       0       0       0       
      +0       0       0       0       0       0       0       0       0       0
  2921 ;;      Temps:          0       0       0       0       0       0       0       0       0       0       0       0       
      +0       0       0       0       0       0       0       0       0       0       0       0       0       0       0       
      +0       0       0       0       0       0       0       0       0       0       0       0       0       0       0       
      +0       0       0       0       0       0       0       0       0       0
  2922 ;;      Totals:         4       0       0       0       0       0       0       0       0       0       0       0       
      +0       0       0       0       0       0       0       0       0       0       0       0       0       0       0       
      +0       0       0       0       0       0       0       0       0       0       0       0       0       0       0       
      +0       0       0       0       0       0       0       0       0       0
  2923 ;;Total ram usage:        4 bytes
  2924 ;; Hardware stack levels used:    1
  2925 ;; This function calls:
  2926 ;;		Nothing
  2927 ;; This function is called by:
  2928 ;;		_main
  2929 ;; This function uses a non-reentrant model
  2930 ;;
  2931                           
  2932                           
  2933                           ;psect for function _ADC_conversion_results
  2934  071E                     _ADC_conversion_results:	
  2935                           
  2936                           ;main.c: 84: ADPCH = 1;
  2937                           
  2938                           ;incstack = 0
  2939                           ; Regs used in _ADC_conversion_results: [wreg]
  2940  071E  3001               	movlw	1
  2941  071F  0141               	movlb	1	; select bank1
  2942  0720  009E               	movwf	30	;volatile
  2943                           
  2944                           ;main.c: 86: ADCON0 |= 1;
  2945  0721  1413               	bsf	19,0	;volatile
  2946  0722                     l168:	
  2947                           ;main.c: 88: while(ADCON0 & 1);
  2948                           
  2949  0722  1813               	btfsc	19,0	;volatile
  2950  0723  2F22               	goto	l168
  2951                           
  2952                           ;main.c: 89: unsigned result = (unsigned)((ADRESH << 8) + ADRESL);
  2953  0724  080D               	movf	13,w	;volatile
  2954  0725  00F3               	movwf	ADC_conversion_results@result+1
  2955  0726  080C               	movf	12,w	;volatile
  2956  0727  00F2               	movwf	ADC_conversion_results@result
  2957                           
  2958                           ;main.c: 90: return result;
  2959  0728  0873               	movf	ADC_conversion_results@result+1,w
  2960  0729  00F1               	movwf	?_ADC_conversion_results+1
  2961  072A  0872               	movf	ADC_conversion_results@result,w
  2962  072B  00F0               	movwf	?_ADC_conversion_results
  2963  072C  0008               	return
  2964  072D                     __end_of_ADC_conversion_results:	
  2965                           
  2966                           	psect	text8
  2967  072D                     __ptext8:	
  2968 ;; *************** function _ADC_Init *****************
  2969 ;; Defined at:
  2970 ;;		line 47 in file "main.c"
  2971 ;; Parameters:    Size  Location     Type
  2972 ;;		None
  2973 ;; Auto vars:     Size  Location     Type
  2974 ;;		None
  2975 ;; Return value:  Size  Location     Type
  2976 ;;                  1    wreg      void 
  2977 ;; Registers used:
  2978 ;;		wreg, status,2
  2979 ;; Tracked objects:
  2980 ;;		On entry : 0/0
  2981 ;;		On exit  : 0/0
  2982 ;;		Unchanged: 0/0
  2983 ;; Data sizes:     COMMON   BANK0   BANK1   BANK2   BANK3   BANK4   BANK5   BANK6   BANK7   BANK8   BANK9  BANK10  BANK1
      +1  BANK12  BANK13  BANK14  BANK15  BANK16  BANK17  BANK18  BANK19  BANK20  BANK21  BANK22  BANK23  BANK24  BANK25  BANK2
      +6  BANK27  BANK28  BANK29  BANK30  BANK31  BANK32  BANK33  BANK34  BANK35  BANK36  BANK37  BANK38  BANK39  BANK40  BANK4
      +1  BANK42  BANK43  BANK44  BANK45  BANK46  BANK47  BANK48  BANK49  BANK50
  2984 ;;      Params:         0       0       0       0       0       0       0       0       0       0       0       0       
      +0       0       0       0       0       0       0       0       0       0       0       0       0       0       0       
      +0       0       0       0       0       0       0       0       0       0       0       0       0       0       0       
      +0       0       0       0       0       0       0       0       0       0
  2985 ;;      Locals:         0       0       0       0       0       0       0       0       0       0       0       0       
      +0       0       0       0       0       0       0       0       0       0       0       0       0       0       0       
      +0       0       0       0       0       0       0       0       0       0       0       0       0       0       0       
      +0       0       0       0       0       0       0       0       0       0
  2986 ;;      Temps:          0       0       0       0       0       0       0       0       0       0       0       0       
      +0       0       0       0       0       0       0       0       0       0       0       0       0       0       0       
      +0       0       0       0       0       0       0       0       0       0       0       0       0       0       0       
      +0       0       0       0       0       0       0       0       0       0
  2987 ;;      Totals:         0       0       0       0       0       0       0       0       0       0       0       0       
      +0       0       0       0       0       0       0       0       0       0       0       0       0       0       0       
      +0       0       0       0       0       0       0       0       0       0       0       0       0       0       0       
      +0       0       0       0       0       0       0       0       0       0
  2988 ;;Total ram usage:        0 bytes
  2989 ;; Hardware stack levels used:    1
  2990 ;; This function calls:
  2991 ;;		Nothing
  2992 ;; This function is called by:
  2993 ;;		_main
  2994 ;; This function uses a non-reentrant model
  2995 ;;
  2996                           
  2997                           
  2998                           ;psect for function _ADC_Init
  2999  072D                     _ADC_Init:	
  3000                           
  3001                           ;main.c: 64: TRISA = 0b11111110;
  3002                           
  3003                           ;incstack = 0
  3004                           ; Regs used in _ADC_Init: [wreg+status,2]
  3005  072D  30FE               	movlw	254
  3006  072E  0140               	movlb	0	; select bank0
  3007  072F  0091               	movwf	17	;volatile
  3008                           
  3009                           ;main.c: 65: TRISAbits.TRISA1 = 1;
  3010  0730  1491               	bsf	17,1	;volatile
  3011                           
  3012                           ;main.c: 66: ANSELAbits.ANSA1 = 1;
  3013  0731  017E               	movlb	62	; select bank62
  3014  0732  14B8               	bsf	56,1	;volatile
  3015                           
  3016                           ;main.c: 67: ADCON1 = 0;
  3017  0733  0141               	movlb	1	; select bank1
  3018  0734  0194               	clrf	20	;volatile
  3019                           
  3020                           ;main.c: 68: ADCON2 = 0;
  3021  0735  0195               	clrf	21	;volatile
  3022                           
  3023                           ;main.c: 69: ADCON3 = 0;
  3024  0736  0196               	clrf	22	;volatile
  3025                           
  3026                           ;main.c: 70: ADACT = 0;
  3027  0737  0199               	clrf	25	;volatile
  3028                           
  3029                           ;main.c: 71: ADSTAT = 0;
  3030  0738  0197               	clrf	23	;volatile
  3031                           
  3032                           ;main.c: 72: ADCAP = 0;
  3033  0739  019B               	clrf	27	;volatile
  3034                           
  3035                           ;main.c: 73: ADPRE = 0;
  3036  073A  019C               	clrf	28	;volatile
  3037                           
  3038                           ;main.c: 74: ADCON0 = 0b10000100;
  3039  073B  3084               	movlw	132
  3040  073C  0093               	movwf	19	;volatile
  3041                           
  3042                           ;main.c: 75: ADREF = 0;
  3043  073D  019A               	clrf	26	;volatile
  3044                           
  3045                           ;main.c: 76: ADPCH = 0b00000001;
  3046  073E  3001               	movlw	1
  3047  073F  009E               	movwf	30	;volatile
  3048                           
  3049                           ;main.c: 78: TX1STA = 0b00100000;
  3050  0740  3020               	movlw	32
  3051  0741  0142               	movlb	2	; select bank2
  3052  0742  009E               	movwf	30	;volatile
  3053                           
  3054                           ;main.c: 79: RC1STA = 0b10000000;
  3055  0743  3080               	movlw	128
  3056  0744  009D               	movwf	29	;volatile
  3057  0745  0008               	return
  3058  0746                     __end_of_ADC_Init:	
  3059  007E                     btemp	set	126	;btemp
  3060  007E                     wtemp0	set	126


Data Sizes:
    Strings     0
    Constant    0
    Data        0
    BSS         0
    Persistent  0
    Stack       0

Auto Spaces:
    Space          Size  Autos    Used
    COMMON           14      9       9
    BANK0            80      0       0
    BANK1            80      0       0
    BANK2            80      0       0
    BANK3            80      0       0
    BANK4            80      0       0
    BANK5            80      0       0
    BANK6            80      0       0
    BANK7            80      0       0
    BANK8            80      0       0
    BANK9            80      0       0
    BANK10           80      0       0
    BANK11           80      0       0
    BANK12           80      0       0
    BANK13           80      0       0
    BANK14           80      0       0
    BANK15           80      0       0
    BANK16           80      0       0
    BANK17           80      0       0
    BANK18           80      0       0
    BANK19           80      0       0
    BANK20           80      0       0
    BANK21           80      0       0
    BANK22           80      0       0
    BANK23           80      0       0
    BANK24           80      0       0
    BANK25           80      0       0
    BANK26           80      0       0
    BANK27           80      0       0
    BANK28           80      0       0
    BANK29           80      0       0
    BANK30           80      0       0
    BANK31           80      0       0
    BANK32           80      0       0
    BANK33           80      0       0
    BANK34           80      0       0
    BANK35           80      0       0
    BANK36           80      0       0
    BANK37           80      0       0
    BANK38           80      0       0
    BANK39           80      0       0
    BANK40           80      0       0
    BANK41           80      0       0
    BANK42           80      0       0
    BANK43           80      0       0
    BANK44           80      0       0
    BANK45           80      0       0
    BANK46           80      0       0
    BANK47           80      0       0
    BANK48           80      0       0
    BANK49           80      0       0
    BANK50           80      0       0

Pointer List with Targets:

    None.

Critical Paths under _main in COMMON

    _main->_ADC_conversion_results
    _SYSTEM_Initialize->_PIN_MANAGER_Initialize

Critical Paths under _main in BANK0

    None.

Critical Paths under _main in BANK1

    None.

Critical Paths under _main in BANK2

    None.

Critical Paths under _main in BANK3

    None.

Critical Paths under _main in BANK4

    None.

Critical Paths under _main in BANK5

    None.

Critical Paths under _main in BANK6

    None.

Critical Paths under _main in BANK7

    None.

Critical Paths under _main in BANK8

    None.

Critical Paths under _main in BANK9

    None.

Critical Paths under _main in BANK10

    None.

Critical Paths under _main in BANK11

    None.

Critical Paths under _main in BANK12

    None.

Critical Paths under _main in BANK13

    None.

Critical Paths under _main in BANK14

    None.

Critical Paths under _main in BANK15

    None.

Critical Paths under _main in BANK16

    None.

Critical Paths under _main in BANK17

    None.

Critical Paths under _main in BANK18

    None.

Critical Paths under _main in BANK19

    None.

Critical Paths under _main in BANK20

    None.

Critical Paths under _main in BANK21

    None.

Critical Paths under _main in BANK22

    None.

Critical Paths under _main in BANK23

    None.

Critical Paths under _main in BANK24

    None.

Critical Paths under _main in BANK25

    None.

Critical Paths under _main in BANK26

    None.

Critical Paths under _main in BANK27

    None.

Critical Paths under _main in BANK28

    None.

Critical Paths under _main in BANK29

    None.

Critical Paths under _main in BANK30

    None.

Critical Paths under _main in BANK31

    None.

Critical Paths under _main in BANK32

    None.

Critical Paths under _main in BANK33

    None.

Critical Paths under _main in BANK34

    None.

Critical Paths under _main in BANK35

    None.

Critical Paths under _main in BANK36

    None.

Critical Paths under _main in BANK37

    None.

Critical Paths under _main in BANK38

    None.

Critical Paths under _main in BANK39

    None.

Critical Paths under _main in BANK40

    None.

Critical Paths under _main in BANK41

    None.

Critical Paths under _main in BANK42

    None.

Critical Paths under _main in BANK43

    None.

Critical Paths under _main in BANK44

    None.

Critical Paths under _main in BANK45

    None.

Critical Paths under _main in BANK46

    None.

Critical Paths under _main in BANK47

    None.

Critical Paths under _main in BANK48

    None.

Critical Paths under _main in BANK49

    None.

Critical Paths under _main in BANK50

    None.

Call Graph Tables:

 ---------------------------------------------------------------------------------
 (Depth) Function   	        Calls       Base Space   Used Autos Params    Refs
 ---------------------------------------------------------------------------------
 (0) _main                                                 5     5      0     216
                                              4 COMMON     5     5      0
                           _ADC_Init
             _ADC_conversion_results
                  _SYSTEM_Initialize
                     _servoRotate180
                      _servoRotate90
 ---------------------------------------------------------------------------------
 (1) _servoRotate90                                        3     3      0      30
                                              0 COMMON     3     3      0
 ---------------------------------------------------------------------------------
 (1) _servoRotate180                                       3     3      0      30
                                              0 COMMON     3     3      0
 ---------------------------------------------------------------------------------
 (1) _SYSTEM_Initialize                                    0     0      0      15
                  _EUSART_Initialize
              _OSCILLATOR_Initialize
             _PIN_MANAGER_Initialize
 ---------------------------------------------------------------------------------
 (2) _PIN_MANAGER_Initialize                               1     1      0      15
                                              0 COMMON     1     1      0
 ---------------------------------------------------------------------------------
 (2) _OSCILLATOR_Initialize                                0     0      0       0
 ---------------------------------------------------------------------------------
 (2) _EUSART_Initialize                                    0     0      0       0
 ---------------------------------------------------------------------------------
 (1) _ADC_conversion_results                               4     2      2      23
                                              0 COMMON     4     2      2
 ---------------------------------------------------------------------------------
 (1) _ADC_Init                                             0     0      0       0
 ---------------------------------------------------------------------------------
 Estimated maximum stack depth 2
 ---------------------------------------------------------------------------------

 Call Graph Graphs:

 _main (ROOT)
   _ADC_Init
   _ADC_conversion_results
   _SYSTEM_Initialize
     _EUSART_Initialize
     _OSCILLATOR_Initialize
     _PIN_MANAGER_Initialize
   _servoRotate180
   _servoRotate90

 Address spaces:
Name               Size   Autos  Total    Cost      Usage
BIGRAM             FF0      0       0       0        0.0%
EEDATA             100      0       0       0        0.0%
NULL                 0      0       0       0        0.0%
CODE                 0      0       0       0        0.0%
BITCOMMON            E      0       0       1        0.0%
BITSFR0              0      0       0       1        0.0%
SFR0                 0      0       0       1        0.0%
COMMON               E      9       9       2       64.3%
BITSFR1              0      0       0       2        0.0%
SFR1                 0      0       0       2        0.0%
BITSFR2              0      0       0       3        0.0%
SFR2                 0      0       0       3        0.0%
STACK                0      0       0       3        0.0%
BITBANK0            50      0       0       4        0.0%
BITSFR3              0      0       0       4        0.0%
SFR3                 0      0       0       4        0.0%
BANK0               50      0       0       5        0.0%
BITSFR4              0      0       0       5        0.0%
SFR4                 0      0       0       5        0.0%
BITBANK1            50      0       0       6        0.0%
BITSFR5              0      0       0       6        0.0%
SFR5                 0      0       0       6        0.0%
BANK1               50      0       0       7        0.0%
BITSFR6              0      0       0       7        0.0%
SFR6                 0      0       0       7        0.0%
BITBANK2            50      0       0       8        0.0%
BITSFR7              0      0       0       8        0.0%
SFR7                 0      0       0       8        0.0%
BANK2               50      0       0       9        0.0%
BITSFR8              0      0       0       9        0.0%
SFR8                 0      0       0       9        0.0%
BITBANK3            50      0       0      10        0.0%
BITSFR9              0      0       0      10        0.0%
SFR9                 0      0       0      10        0.0%
BANK3               50      0       0      11        0.0%
BITSFR10             0      0       0      11        0.0%
SFR10                0      0       0      11        0.0%
BITBANK4            50      0       0      12        0.0%
BITSFR11             0      0       0      12        0.0%
SFR11                0      0       0      12        0.0%
BANK4               50      0       0      13        0.0%
BITSFR12             0      0       0      13        0.0%
SFR12                0      0       0      13        0.0%
BITBANK5            50      0       0      14        0.0%
BITSFR13             0      0       0      14        0.0%
SFR13                0      0       0      14        0.0%
BANK5               50      0       0      15        0.0%
BITSFR14             0      0       0      15        0.0%
SFR14                0      0       0      15        0.0%
BITBANK6            50      0       0      16        0.0%
BITSFR15             0      0       0      16        0.0%
SFR15                0      0       0      16        0.0%
BANK6               50      0       0      17        0.0%
BITSFR16             0      0       0      17        0.0%
SFR16                0      0       0      17        0.0%
BITBANK7            50      0       0      18        0.0%
BITSFR17             0      0       0      18        0.0%
SFR17                0      0       0      18        0.0%
BANK7               50      0       0      19        0.0%
BITSFR18             0      0       0      19        0.0%
SFR18                0      0       0      19        0.0%
BITBANK8            50      0       0      20        0.0%
BITSFR19             0      0       0      20        0.0%
SFR19                0      0       0      20        0.0%
BANK8               50      0       0      21        0.0%
BITSFR20             0      0       0      21        0.0%
SFR20                0      0       0      21        0.0%
BITBANK9            50      0       0      22        0.0%
BITSFR21             0      0       0      22        0.0%
SFR21                0      0       0      22        0.0%
BANK9               50      0       0      23        0.0%
BITSFR22             0      0       0      23        0.0%
SFR22                0      0       0      23        0.0%
BITBANK10           50      0       0      24        0.0%
BITSFR23             0      0       0      24        0.0%
SFR23                0      0       0      24        0.0%
BANK10              50      0       0      25        0.0%
BITSFR24             0      0       0      25        0.0%
SFR24                0      0       0      25        0.0%
BITBANK11           50      0       0      26        0.0%
BITSFR25             0      0       0      26        0.0%
SFR25                0      0       0      26        0.0%
BANK11              50      0       0      27        0.0%
BITSFR26             0      0       0      27        0.0%
SFR26                0      0       0      27        0.0%
BITSFR27             0      0       0      28        0.0%
SFR27                0      0       0      28        0.0%
ABS                  0      0       0      28        0.0%
BITBANK12           50      0       0      29        0.0%
BITSFR28             0      0       0      29        0.0%
SFR28                0      0       0      29        0.0%
BANK12              50      0       0      30        0.0%
BITSFR29             0      0       0      30        0.0%
SFR29                0      0       0      30        0.0%
BITBANK13           50      0       0      31        0.0%
BITSFR30             0      0       0      31        0.0%
SFR30                0      0       0      31        0.0%
BANK13              50      0       0      32        0.0%
BITSFR31             0      0       0      32        0.0%
SFR31                0      0       0      32        0.0%
BITBANK14           50      0       0      33        0.0%
BITSFR32             0      0       0      33        0.0%
SFR32                0      0       0      33        0.0%
BANK14              50      0       0      34        0.0%
BITSFR33             0      0       0      34        0.0%
SFR33                0      0       0      34        0.0%
BITBANK15           50      0       0      35        0.0%
BITSFR34             0      0       0      35        0.0%
SFR34                0      0       0      35        0.0%
BANK15              50      0       0      36        0.0%
BITSFR35             0      0       0      36        0.0%
SFR35                0      0       0      36        0.0%
BITBANK16           50      0       0      37        0.0%
BITSFR36             0      0       0      37        0.0%
SFR36                0      0       0      37        0.0%
BANK16              50      0       0      38        0.0%
BITSFR37             0      0       0      38        0.0%
SFR37                0      0       0      38        0.0%
BITBANK17           50      0       0      39        0.0%
BITSFR38             0      0       0      39        0.0%
SFR38                0      0       0      39        0.0%
BANK17              50      0       0      40        0.0%
BITSFR39             0      0       0      40        0.0%
SFR39                0      0       0      40        0.0%
BITBANK18           50      0       0      41        0.0%
BITSFR40             0      0       0      41        0.0%
SFR40                0      0       0      41        0.0%
BANK18              50      0       0      42        0.0%
BITSFR41             0      0       0      42        0.0%
SFR41                0      0       0      42        0.0%
BITBANK19           50      0       0      43        0.0%
BITSFR42             0      0       0      43        0.0%
SFR42                0      0       0      43        0.0%
BANK19              50      0       0      44        0.0%
BITSFR43             0      0       0      44        0.0%
SFR43                0      0       0      44        0.0%
BITBANK20           50      0       0      45        0.0%
BITSFR44             0      0       0      45        0.0%
SFR44                0      0       0      45        0.0%
BANK20              50      0       0      46        0.0%
BITSFR45             0      0       0      46        0.0%
SFR45                0      0       0      46        0.0%
BITBANK21           50      0       0      47        0.0%
BITSFR46             0      0       0      47        0.0%
SFR46                0      0       0      47        0.0%
BANK21              50      0       0      48        0.0%
BITSFR47             0      0       0      48        0.0%
SFR47                0      0       0      48        0.0%
BITBANK22           50      0       0      49        0.0%
BITSFR48             0      0       0      49        0.0%
SFR48                0      0       0      49        0.0%
BANK22              50      0       0      50        0.0%
BITSFR49             0      0       0      50        0.0%
SFR49                0      0       0      50        0.0%
BITBANK23           50      0       0      51        0.0%
BITSFR50             0      0       0      51        0.0%
SFR50                0      0       0      51        0.0%
BANK23              50      0       0      52        0.0%
BITSFR51             0      0       0      52        0.0%
SFR51                0      0       0      52        0.0%
BITBANK24           50      0       0      53        0.0%
BITSFR52             0      0       0      53        0.0%
SFR52                0      0       0      53        0.0%
BANK24              50      0       0      54        0.0%
BITSFR53             0      0       0      54        0.0%
SFR53                0      0       0      54        0.0%
BITBANK25           50      0       0      55        0.0%
BITSFR54             0      0       0      55        0.0%
SFR54                0      0       0      55        0.0%
BANK25              50      0       0      56        0.0%
BITSFR55             0      0       0      56        0.0%
SFR55                0      0       0      56        0.0%
BITBANK26           50      0       0      57        0.0%
BITSFR56             0      0       0      57        0.0%
SFR56                0      0       0      57        0.0%
BANK26              50      0       0      58        0.0%
BITSFR57             0      0       0      58        0.0%
SFR57                0      0       0      58        0.0%
BITSFR58             0      0       0      59        0.0%
SFR58                0      0       0      59        0.0%
DATA                 0      0       0      59        0.0%
BITBANK27           50      0       0      60        0.0%
BITSFR59             0      0       0      60        0.0%
SFR59                0      0       0      60        0.0%
BANK27              50      0       0      61        0.0%
BITSFR60             0      0       0      61        0.0%
SFR60                0      0       0      61        0.0%
BITBANK28           50      0       0      62        0.0%
BITSFR61             0      0       0      62        0.0%
SFR61                0      0       0      62        0.0%
BANK28              50      0       0      63        0.0%
BITSFR62             0      0       0      63        0.0%
SFR62                0      0       0      63        0.0%
BITBANK29           50      0       0      64        0.0%
BITSFR63             0      0       0      64        0.0%
SFR63                0      0       0      64        0.0%
BANK29              50      0       0      65        0.0%
BITBANK30           50      0       0      66        0.0%
BANK30              50      0       0      67        0.0%
BITBANK31           50      0       0      68        0.0%
BANK31              50      0       0      69        0.0%
BITBANK32           50      0       0      70        0.0%
BANK32              50      0       0      71        0.0%
BITBANK33           50      0       0      72        0.0%
BANK33              50      0       0      73        0.0%
BITBANK34           50      0       0      74        0.0%
BANK34              50      0       0      75        0.0%
BITBANK35           50      0       0      76        0.0%
BANK35              50      0       0      77        0.0%
BITBANK36           50      0       0      78        0.0%
BANK36              50      0       0      79        0.0%
BITBANK37           50      0       0      80        0.0%
BANK37              50      0       0      81        0.0%
BITBANK38           50      0       0      82        0.0%
BANK38              50      0       0      83        0.0%
BITBANK39           50      0       0      84        0.0%
BANK39              50      0       0      85        0.0%
BITBANK40           50      0       0      86        0.0%
BANK40              50      0       0      87        0.0%
BITBANK41           50      0       0      88        0.0%
BANK41              50      0       0      89        0.0%
BITBANK42           50      0       0      90        0.0%
BANK42              50      0       0      91        0.0%
BITBANK43           50      0       0      92        0.0%
BANK43              50      0       0      93        0.0%
BITBANK44           50      0       0      94        0.0%
BANK44              50      0       0      95        0.0%
BITBANK45           50      0       0      96        0.0%
BANK45              50      0       0      97        0.0%
BITBANK46           50      0       0      98        0.0%
BANK46              50      0       0      99        0.0%
BITBANK47           50      0       0     100        0.0%
BANK47              50      0       0     101        0.0%
BITBANK48           50      0       0     102        0.0%
BANK48              50      0       0     103        0.0%
BITBANK49           50      0       0     104        0.0%
BANK49              50      0       0     105        0.0%
BITBANK50           50      0       0     106        0.0%
BANK50              50      0       0     107        0.0%


Microchip Technology PIC Macro Assembler V1.42 build -159332390 
Symbol Table                                                                                   Mon Sep 25 10:58:58 2017

                    __CFG_CP$OFF 0000                               u10 07B5                      __CFG_LVP$ON 0000  
                    __CFG_ZCD$ON 0000                              l168 0722                              l852 07D6  
                            l854 07D8                              l846 07C5                              l866 07ED  
                            _GIE 005F                              u247 0772                              u257 077A  
                   __CFG_CPD$OFF 0000                              u267 0753                              u277 075B  
                   __CFG_BORV$LO 0000                              wreg 0009                   servoRotate90@i 0071  
   ADC_conversion_results@result 0072                             _LATA 0016                             _LATB 0017  
                           _LATC 0018                             _WPUA 1F39                             _WPUB 1F44  
                           _WPUC 1F4F                     __CFG_WRT$OFF 0000                    __CFG_FCMEN$ON 0000  
                           _main 07B7                             btemp 007E                      main@results 0074  
               __end_of_ADC_Init 0746                    __CFG_BOREN$ON 0000                             start 0002  
                ??_servoRotate90 0070                  servoRotate180@i 0071                    __CFG_CSWEN$ON 0000  
                  __CFG_MCLRE$ON 0000   __size_of_OSCILLATOR_Initialize 000A    __end_of_OSCILLATOR_Initialize 0713  
                          _ADACT 0099                            _ADCAP 009B                            ?_main 0070  
                          _ADPCH 009E                            _ADREF 009A                            _ADPRE 009C  
                  __CFG_WDTE$OFF 0000                            _OSCEN 0891                            _PORTA 000C  
                          _PORTB 000D                            _TRISA 0011                            _TRISB 0012  
                          _TRISC 0013                            _RXPPS 1ECB                            status 0003  
                          wtemp0 007E                 ??_servoRotate180 0070                  __initialization 07FD  
                   __end_of_main 07FD                           ??_main 0074                           _ADCON0 0093  
                         _ADCON1 0094                           _ADCON2 0095                           _ADCON3 0096  
                         _ADRESH 008D                           _ADRESL 008C                           _ADSTAT 0097  
                         _ANSELA 1F38                           _ANSELB 1F43                           _ANSELC 1F4E  
             __CFG_RSTOSC$HFINT1 0000                           _RC1REG 0119                           _RC1STA 011D  
                         _RC3PPS 1F23                           _RC6PPS 1F26                   __CFG_WDTCCS$SC 0000  
                         _OSCFRQ 0893                           _TX1REG 011A                           _TX1STA 011E  
                 __CFG_PWRTE$OFF 0000                   __CFG_STVREN$ON 0000                        ?_ADC_Init 0070  
              _SYSTEM_Initialize 0700          __end_of__initialization 07FD               ?_SYSTEM_Initialize 0070  
                 __pcstackCOMMON 0070              ??_SYSTEM_Initialize 0071                       ??_ADC_Init 0070  
       ??_ADC_conversion_results 0072        __end_of_SYSTEM_Initialize 0709                       __pmaintext 07B7  
                __CFG_PPS1WAY$ON 0000                          _SP1BRGH 011C                          _SP1BRGL 011B  
                        _OSCCON1 088D                          _OSCCON3 088F                          _OSCSTAT 0890  
                        _OSCTUNE 0892                          _PPSLOCK 1E8F            __end_of_servoRotate90 0784  
           __CFG_SCANE$available 0000    main@servo_direction_clockwise 0078                          __ptext1 0765  
                        __ptext2 0746                          __ptext3 0700                          __ptext4 0784  
                        __ptext5 0709                          __ptext6 0713                          __ptext7 071E  
                        __ptext8 072D            _OSCILLATOR_Initialize 0709         ??_PIN_MANAGER_Initialize 0070  
__size_of_ADC_conversion_results 000F       __size_of_SYSTEM_Initialize 0009             end_of_initialization 07FD  
              _EUSART_Initialize 0713               ?_EUSART_Initialize 0070            __CFG_WDTCPS$WDTCPS_31 0000  
            ??_EUSART_Initialize 0070                        _TRISAbits 0011                __size_of_ADC_Init 0019  
               __CFG_FEXTOSC$OFF 0000        __end_of_EUSART_Initialize 071E           _ADC_conversion_results 071E  
        __size_of_servoRotate180 001F           ?_OSCILLATOR_Initialize 0070              start_initialization 07FD  
__size_of_PIN_MANAGER_Initialize 0033                 __CFG_LPBOREN$OFF 0000                        ___latbits 0004  
     __size_of_EUSART_Initialize 000B           _PIN_MANAGER_Initialize 0784                         _BAUD1CON 011F  
                       _ADC_Init 072D                         _PIR3bits 070F                   _servoRotate180 0746  
                      main@count 0076           __size_of_servoRotate90 001F          ?_ADC_conversion_results 0070  
         __end_of_servoRotate180 0765          ??_OSCILLATOR_Initialize 0070                       _ANSELAbits 1F38  
 __end_of_ADC_conversion_results 072D                    __size_of_main 0046             __CFG_WDTCWS$WDTCWS_7 0000  
                     _RC1STAbits 011D                  ?_servoRotate180 0070                    _servoRotate90 0765  
    PIN_MANAGER_Initialize@state 0070          ?_PIN_MANAGER_Initialize 0070                __CFG_CLKOUTEN$OFF 0000  
                    _PPSLOCKbits 1E8F                   ?_servoRotate90 0070   __end_of_PIN_MANAGER_Initialize 07B7  
